(lp0
((lp1
F0.0
aF1.505249984562397
aF0.2890999972820282
aF0.0
aF0.6946363638747822
aF0.0
accopy_reg
_reconstructor
p2
(cgeometry_msgs.msg._Twist
Twist
p3
c__builtin__
object
p4
Ntp5
Rp6
(lp7
g2
(cgeometry_msgs.msg._Vector3
Vector3
p8
g4
Ntp9
Rp10
(lp11
F0.0
aF0.0
aF0.0
abag2
(g8
g4
Ntp12
Rp13
(lp14
F0.0
aF0.0
aF0.0
ababtp15
a((lp16
F0.0
aF1.505249984562397
aF0.2890999972820282
aF0.0
aF0.6946363638747822
aF0.0
ag6
tp17
a((lp18
F0.0
aF1.505249984562397
aF0.2890999972820282
aF0.0
aF0.6946363638747822
aF0.0
ag6
tp19
a((lp20
F0.0
aF1.505249984562397
aF0.2890999972820282
aF0.0
aF0.6946363638747822
aF0.0
ag6
tp21
a((lp22
F0.0
aF2.5759999752044678
aF0.2890999972820282
aF0.0
aF0.6946363638747822
aF0.0
ag6
tp23
a((lp24
F0.0
aF2.5759999752044678
aF0.2890999972820282
aF0.0
aF0.6946363638747822
aF0.0
ag6
tp25
a((lp26
F0.0
aF2.5759999752044678
aF0.2890999972820282
aF0.0
aF0.6946363638747822
aF0.0
ag2
(g3
g4
Ntp27
Rp28
(lp29
g2
(g8
g4
Ntp30
Rp31
(lp32
F0.5
aF0.0
aF0.0
abag2
(g8
g4
Ntp33
Rp34
(lp35
F0.0
aF0.0
aF0.0
ababtp36
a((lp37
F0.0
aF2.5759999752044678
aF0.2890999972820282
aF0.0
aF0.6946363638747822
aF0.0
ag28
tp38
a((lp39
F0.0
aF2.5759999752044678
aF0.2890999972820282
aF0.0
aF0.6946363638747822
aF0.0
ag28
tp40
a((lp41
F0.0
aF2.5759999752044678
aF0.2890999972820282
aF0.0
aF0.6946363638747822
aF0.0
ag28
tp42
a((lp43
F0.0
aF2.5759999752044678
aF0.2890999972820282
aF0.0
aF0.6946363638747822
aF0.0
ag2
(g3
g4
Ntp44
Rp45
(lp46
g2
(g8
g4
Ntp47
Rp48
(lp49
F0.45
aF0.0
aF0.0
abag2
(g8
g4
Ntp50
Rp51
(lp52
F0.0
aF0.0
aF0.0
ababtp53
a((lp54
F0.0
aF2.5759999752044678
aF0.2890999972820282
aF0.0
aF0.6946363638747822
aF0.0
ag45
tp55
a((lp56
F0.0
aF2.5759999752044678
aF0.2890999972820282
aF0.0
aF0.6946363638747822
aF0.0
ag2
(g3
g4
Ntp57
Rp58
(lp59
g2
(g8
g4
Ntp60
Rp61
(lp62
F0.405
aF0.0
aF0.0
abag2
(g8
g4
Ntp63
Rp64
(lp65
F0.0
aF0.0
aF0.0
ababtp66
a((lp67
F0.0
aF2.5759999752044678
aF0.2890999972820282
aF0.0
aF0.6946363638747822
aF0.0
ag58
tp68
a((lp69
F0.0
aF2.5759999752044678
aF0.2890999972820282
aF0.0
aF0.6946363638747822
aF0.0
ag2
(g3
g4
Ntp70
Rp71
(lp72
g2
(g8
g4
Ntp73
Rp74
(lp75
F0.36450000000000005
aF0.0
aF0.0
abag2
(g8
g4
Ntp76
Rp77
(lp78
F0.0
aF0.0
aF0.0
ababtp79
a((lp80
F0.0
aF2.5759999752044678
aF0.2890999972820282
aF0.0
aF0.6946363638747822
aF0.0
ag71
tp81
a((lp82
F0.0
aF2.5759999752044678
aF0.2890999972820282
aF0.0
aF0.6946363638747822
aF0.0
ag2
(g3
g4
Ntp83
Rp84
(lp85
g2
(g8
g4
Ntp86
Rp87
(lp88
F0.32805000000000006
aF0.0
aF0.0
abag2
(g8
g4
Ntp89
Rp90
(lp91
F0.0
aF0.0
aF0.0
ababtp92
a((lp93
F0.0
aF2.5759999752044678
aF0.2890999972820282
aF0.0
aF0.6946363638747822
aF0.0
ag2
(g3
g4
Ntp94
Rp95
(lp96
g2
(g8
g4
Ntp97
Rp98
(lp99
F0.2952450000000001
aF0.0
aF0.0
abag2
(g8
g4
Ntp100
Rp101
(lp102
F0.0
aF0.0
aF0.0
ababtp103
a((lp104
F0.0
aF2.5759999752044678
aF0.2890999972820282
aF0.0
aF0.6946363638747822
aF0.0
ag95
tp105
a((lp106
F0.0
aF2.5759999752044678
aF0.2890999972820282
aF0.0
aF0.6946363638747822
aF0.0
ag2
(g3
g4
Ntp107
Rp108
(lp109
g2
(g8
g4
Ntp110
Rp111
(lp112
F0.2657205000000001
aF0.0
aF0.0
abag2
(g8
g4
Ntp113
Rp114
(lp115
F0.0
aF0.0
aF0.0
ababtp116
a((lp117
F0.0
aF2.5759999752044678
aF0.2890999972820282
aF0.0
aF0.6946363638747822
aF0.0
ag108
tp118
a((lp119
F0.0
aF2.5759999752044678
aF0.2890999972820282
aF0.0
aF0.6946363638747822
aF0.0
ag2
(g3
g4
Ntp120
Rp121
(lp122
g2
(g8
g4
Ntp123
Rp124
(lp125
F0.23914845000000007
aF0.0
aF0.0
abag2
(g8
g4
Ntp126
Rp127
(lp128
F0.0
aF0.0
aF0.0
ababtp129
a((lp130
F0.0
aF2.5759999752044678
aF0.2890999972820282
aF0.0
aF0.6946363638747822
aF0.0
ag2
(g3
g4
Ntp131
Rp132
(lp133
g2
(g8
g4
Ntp134
Rp135
(lp136
F0.21523360500000008
aF0.0
aF0.0
abag2
(g8
g4
Ntp137
Rp138
(lp139
F0.0
aF0.0
aF0.0
ababtp140
a((lp141
F0.0
aF2.5759999752044678
aF0.2890999972820282
aF0.0
aF0.6946363638747822
aF0.0
ag132
tp142
a((lp143
F0.0
aF2.5759999752044678
aF0.2890999972820282
aF0.0
aF0.6946363638747822
aF0.0
ag2
(g3
g4
Ntp144
Rp145
(lp146
g2
(g8
g4
Ntp147
Rp148
(lp149
F0.19371024450000007
aF0.0
aF0.0
abag2
(g8
g4
Ntp150
Rp151
(lp152
F0.0
aF0.0
aF0.0
ababtp153
a((lp154
F0.0
aF2.5759999752044678
aF0.2890999972820282
aF0.0
aF0.6946363638747822
aF0.0
ag2
(g3
g4
Ntp155
Rp156
(lp157
g2
(g8
g4
Ntp158
Rp159
(lp160
F0.17433922005000008
aF0.0
aF0.0
abag2
(g8
g4
Ntp161
Rp162
(lp163
F0.0
aF0.0
aF0.0
ababtp164
a((lp165
F0.0
aF2.5759999752044678
aF0.2890999972820282
aF0.0
aF0.6946363638747822
aF0.0
ag2
(g3
g4
Ntp166
Rp167
(lp168
g2
(g8
g4
Ntp169
Rp170
(lp171
F0.15690529804500009
aF0.0
aF0.0
abag2
(g8
g4
Ntp172
Rp173
(lp174
F0.0
aF0.0
aF0.0
ababtp175
a((lp176
F0.0
aF2.5759999752044678
aF0.2890999972820282
aF0.0
aF0.6946363638747822
aF0.0
ag2
(g3
g4
Ntp177
Rp178
(lp179
g2
(g8
g4
Ntp180
Rp181
(lp182
F0.14121476824050008
aF0.0
aF0.0
abag2
(g8
g4
Ntp183
Rp184
(lp185
F0.0
aF0.0
aF0.0
ababtp186
a((lp187
F0.0
aF2.5759999752044678
aF0.2890999972820282
aF0.0
aF0.6946363638747822
aF0.0
ag2
(g3
g4
Ntp188
Rp189
(lp190
g2
(g8
g4
Ntp191
Rp192
(lp193
F0.12709329141645007
aF0.0
aF0.0
abag2
(g8
g4
Ntp194
Rp195
(lp196
F0.0
aF0.0
aF0.0
ababtp197
a((lp198
F0.0
aF2.5759999752044678
aF0.2890999972820282
aF0.0
aF0.6946363638747822
aF0.0
ag2
(g3
g4
Ntp199
Rp200
(lp201
g2
(g8
g4
Ntp202
Rp203
(lp204
F0.11438396227480506
aF0.0
aF0.0
abag2
(g8
g4
Ntp205
Rp206
(lp207
F0.0
aF0.0
aF0.0
ababtp208
a((lp209
F0.0
aF2.5759999752044678
aF0.2890999972820282
aF0.0
aF0.6946363638747822
aF0.0
ag2
(g3
g4
Ntp210
Rp211
(lp212
g2
(g8
g4
Ntp213
Rp214
(lp215
F0.10294556604732455
aF0.0
aF0.0
abag2
(g8
g4
Ntp216
Rp217
(lp218
F0.0
aF0.0
aF0.0
ababtp219
a((lp220
F0.0
aF2.5759999752044678
aF0.2890999972820282
aF0.0
aF0.6946363638747822
aF0.0
ag2
(g3
g4
Ntp221
Rp222
(lp223
g2
(g8
g4
Ntp224
Rp225
(lp226
F0.0926510094425921
aF0.0
aF0.0
abag2
(g8
g4
Ntp227
Rp228
(lp229
F0.0
aF0.0
aF0.0
ababtp230
a((lp231
F0.0
aF2.5759999752044678
aF0.2890999972820282
aF0.0
aF0.6946363638747822
aF0.0
ag2
(g3
g4
Ntp232
Rp233
(lp234
g2
(g8
g4
Ntp235
Rp236
(lp237
F0.08338590849833288
aF0.0
aF0.0
abag2
(g8
g4
Ntp238
Rp239
(lp240
F0.0
aF0.0
aF0.0
ababtp241
a((lp242
F0.0
aF2.5759999752044678
aF0.2890999972820282
aF0.0
aF0.6946363638747822
aF0.0
ag2
(g3
g4
Ntp243
Rp244
(lp245
g2
(g8
g4
Ntp246
Rp247
(lp248
F0.0750473176484996
aF0.0
aF0.0
abag2
(g8
g4
Ntp249
Rp250
(lp251
F0.0
aF0.0
aF0.0
ababtp252
a((lp253
F0.0
aF2.5759999752044678
aF0.2890999972820282
aF0.0
aF0.6946363638747822
aF0.0
ag2
(g3
g4
Ntp254
Rp255
(lp256
g2
(g8
g4
Ntp257
Rp258
(lp259
F0.06078832729528468
aF0.0
aF0.0
abag2
(g8
g4
Ntp260
Rp261
(lp262
F0.0
aF0.0
aF0.0
ababtp263
a((lp264
F0.0
aF2.5759999752044678
aF0.2890999972820282
aF0.0
aF0.6946363638747822
aF0.0
ag2
(g3
g4
Ntp265
Rp266
(lp267
g2
(g8
g4
Ntp268
Rp269
(lp270
F0.05470949456575622
aF0.0
aF0.0
abag2
(g8
g4
Ntp271
Rp272
(lp273
F0.0
aF0.0
aF0.0
ababtp274
a((lp275
F0.0
aF2.5759999752044678
aF0.2890999972820282
aF0.0
aF0.6946363638747822
aF0.0
ag2
(g3
g4
Ntp276
Rp277
(lp278
g2
(g8
g4
Ntp279
Rp280
(lp281
F0.0492385451091806
aF0.0
aF0.0
abag2
(g8
g4
Ntp282
Rp283
(lp284
F0.0
aF0.0
aF0.0
ababtp285
a((lp286
F0.0
aF2.5759999752044678
aF0.2890999972820282
aF0.0
aF0.6946363638747822
aF0.0
ag2
(g3
g4
Ntp287
Rp288
(lp289
g2
(g8
g4
Ntp290
Rp291
(lp292
F0.04431469059826254
aF0.0
aF0.0
abag2
(g8
g4
Ntp293
Rp294
(lp295
F0.0
aF0.0
aF0.0
ababtp296
a((lp297
F0.0
aF2.5759999752044678
aF0.2890999972820282
aF0.0
aF0.6946363638747822
aF0.0
ag2
(g3
g4
Ntp298
Rp299
(lp300
g2
(g8
g4
Ntp301
Rp302
(lp303
F0.039883221538436285
aF0.0
aF0.0
abag2
(g8
g4
Ntp304
Rp305
(lp306
F0.0
aF0.0
aF0.0
ababtp307
a((lp308
F0.0
aF2.5759999752044678
aF0.2890999972820282
aF0.0
aF0.6946363638747822
aF0.0
ag2
(g3
g4
Ntp309
Rp310
(lp311
g2
(g8
g4
Ntp312
Rp313
(lp314
F0.03589489938459266
aF0.0
aF0.0
abag2
(g8
g4
Ntp315
Rp316
(lp317
F0.0
aF0.0
aF0.0
ababtp318
a((lp319
F0.0
aF2.5759999752044678
aF0.2890999972820282
aF0.0
aF0.6946363638747822
aF0.0
ag2
(g3
g4
Ntp320
Rp321
(lp322
g2
(g8
g4
Ntp323
Rp324
(lp325
F0.032305409446133394
aF0.0
aF0.0
abag2
(g8
g4
Ntp326
Rp327
(lp328
F0.0
aF0.0
aF0.0
ababtp329
a((lp330
F0.0
aF2.5759999752044678
aF0.2890999972820282
aF0.0
aF0.6946363638747822
aF0.0
ag2
(g3
g4
Ntp331
Rp332
(lp333
g2
(g8
g4
Ntp334
Rp335
(lp336
F0.029074868501520055
aF0.0
aF0.0
abag2
(g8
g4
Ntp337
Rp338
(lp339
F0.0
aF0.0
aF0.0
ababtp340
a((lp341
F0.0
aF2.5759999752044678
aF0.2890999972820282
aF0.0
aF0.6946363638747822
aF0.0
ag2
(g3
g4
Ntp342
Rp343
(lp344
g2
(g8
g4
Ntp345
Rp346
(lp347
F0.02616738165136805
aF0.0
aF0.0
abag2
(g8
g4
Ntp348
Rp349
(lp350
F0.0
aF0.0
aF0.0
ababtp351
a((lp352
F0.0
aF2.5759999752044678
aF0.2890999972820282
aF0.0
aF0.6946363638747822
aF0.0
ag2
(g3
g4
Ntp353
Rp354
(lp355
g2
(g8
g4
Ntp356
Rp357
(lp358
F0.023550643486231246
aF0.0
aF0.0
abag2
(g8
g4
Ntp359
Rp360
(lp361
F0.0
aF0.0
aF0.0
ababtp362
a((lp363
F0.0
aF2.5759999752044678
aF0.2890999972820282
aF0.0
aF0.6946363638747822
aF0.0
ag2
(g3
g4
Ntp364
Rp365
(lp366
g2
(g8
g4
Ntp367
Rp368
(lp369
F0.021195579137608122
aF0.0
aF0.0
abag2
(g8
g4
Ntp370
Rp371
(lp372
F0.0
aF0.0
aF0.0
ababtp373
a((lp374
F0.0
aF2.5759999752044678
aF0.2890999972820282
aF0.0
aF0.6946363638747822
aF0.0
ag2
(g3
g4
Ntp375
Rp376
(lp377
g2
(g8
g4
Ntp378
Rp379
(lp380
F0.01907602122384731
aF0.0
aF0.0
abag2
(g8
g4
Ntp381
Rp382
(lp383
F0.0
aF0.0
aF0.0
ababtp384
a((lp385
F0.0
aF2.5759999752044678
aF0.2890999972820282
aF0.0
aF0.6946363638747822
aF0.0
ag2
(g3
g4
Ntp386
Rp387
(lp388
g2
(g8
g4
Ntp389
Rp390
(lp391
F0.015451577191316321
aF0.0
aF0.0
abag2
(g8
g4
Ntp392
Rp393
(lp394
F0.0
aF0.0
aF0.0
ababtp395
a((lp396
F0.0
aF2.5759999752044678
aF0.2890999972820282
aF0.0
aF0.6946363638747822
aF0.0
ag2
(g3
g4
Ntp397
Rp398
(lp399
g2
(g8
g4
Ntp400
Rp401
(lp402
F0.01390641947218469
aF0.0
aF0.0
abag2
(g8
g4
Ntp403
Rp404
(lp405
F0.0
aF0.0
aF0.0
ababtp406
a((lp407
F0.0
aF2.5759999752044678
aF0.2890999972820282
aF0.0
aF0.6946363638747822
aF0.0
ag2
(g3
g4
Ntp408
Rp409
(lp410
g2
(g8
g4
Ntp411
Rp412
(lp413
F0.012515777524966222
aF0.0
aF0.0
abag2
(g8
g4
Ntp414
Rp415
(lp416
F0.0
aF0.0
aF0.0
ababtp417
a((lp418
F0.0
aF2.5759999752044678
aF0.2890999972820282
aF0.0
aF0.6946363638747822
aF0.0
ag2
(g3
g4
Ntp419
Rp420
(lp421
g2
(g8
g4
Ntp422
Rp423
(lp424
F0.0112641997724696
aF0.0
aF0.0
abag2
(g8
g4
Ntp425
Rp426
(lp427
F0.0
aF0.0
aF0.0
ababtp428
a.(lp0
((lp1
F0.0
aF2.5759999752044678
aF0.2890999972820282
aF0.0
aF0.6946363638747822
aF0.0
accopy_reg
_reconstructor
p2
(cgeometry_msgs.msg._Twist
Twist
p3
c__builtin__
object
p4
Ntp5
Rp6
(lp7
g2
(cgeometry_msgs.msg._Vector3
Vector3
p8
g4
Ntp9
Rp10
(lp11
F0.5
aF0.0
aF0.0
abag2
(g8
g4
Ntp12
Rp13
(lp14
F0.0
aF0.0
aF0.0
ababtp15
a((lp16
F0.0
aF2.5759999752044678
aF0.2890999972820282
aF0.0
aF0.6946363638747822
aF0.0
ag6
tp17
a((lp18
F0.0
aF2.5759999752044678
aF0.2890999972820282
aF0.0
aF0.6946363638747822
aF0.0
ag6
tp19
a((lp20
F0.0
aF2.5759999752044678
aF0.2890999972820282
aF0.0
aF0.6946363638747822
aF0.0
ag6
tp21
a((lp22
F0.0
aF2.5759999752044678
aF0.2890999972820282
aF0.0
aF0.6946363638747822
aF0.0
ag6
tp23
a((lp24
F0.0
aF2.5759999752044678
aF0.2890999972820282
aF0.0
aF0.6946363638747822
aF0.0
ag6
tp25
a((lp26
F0.0
aF2.5759999752044678
aF0.2890999972820282
aF0.0
aF0.6946363638747822
aF0.0
ag2
(g3
g4
Ntp27
Rp28
(lp29
g2
(g8
g4
Ntp30
Rp31
(lp32
F0.45
aF0.0
aF0.0
abag2
(g8
g4
Ntp33
Rp34
(lp35
F0.0
aF0.0
aF0.0
ababtp36
a((lp37
F0.0
aF2.5759999752044678
aF0.2890999972820282
aF0.0
aF0.6946363638747822
aF0.0
ag2
(g3
g4
Ntp38
Rp39
(lp40
g2
(g8
g4
Ntp41
Rp42
(lp43
F0.405
aF0.0
aF0.0
abag2
(g8
g4
Ntp44
Rp45
(lp46
F0.0
aF0.0
aF0.0
ababtp47
a((lp48
F0.0
aF2.5759999752044678
aF0.2890999972820282
aF0.0
aF0.6946363638747822
aF0.0
ag39
tp49
a((lp50
F0.0
aF2.5759999752044678
aF0.2890999972820282
aF0.0
aF0.6946363638747822
aF0.0
ag2
(g3
g4
Ntp51
Rp52
(lp53
g2
(g8
g4
Ntp54
Rp55
(lp56
F0.36450000000000005
aF0.0
aF0.0
abag2
(g8
g4
Ntp57
Rp58
(lp59
F0.0
aF0.0
aF0.0
ababtp60
a((lp61
F0.0
aF2.5759999752044678
aF0.2890999972820282
aF0.0
aF0.6946363638747822
aF0.0
ag52
tp62
a((lp63
F0.0
aF2.5759999752044678
aF0.2890999972820282
aF0.0
aF0.6946363638747822
aF0.0
ag2
(g3
g4
Ntp64
Rp65
(lp66
g2
(g8
g4
Ntp67
Rp68
(lp69
F0.32805000000000006
aF0.0
aF0.0
abag2
(g8
g4
Ntp70
Rp71
(lp72
F0.0
aF0.0
aF0.0
ababtp73
a((lp74
F0.0
aF2.5759999752044678
aF0.2890999972820282
aF0.0
aF0.6946363638747822
aF0.0
ag65
tp75
a((lp76
F0.0
aF2.5759999752044678
aF0.2890999972820282
aF0.0
aF0.6946363638747822
aF0.0
ag2
(g3
g4
Ntp77
Rp78
(lp79
g2
(g8
g4
Ntp80
Rp81
(lp82
F0.2952450000000001
aF0.0
aF0.0
abag2
(g8
g4
Ntp83
Rp84
(lp85
F0.0
aF0.0
aF0.0
ababtp86
a((lp87
F0.0
aF2.5759999752044678
aF0.2890999972820282
aF0.0
aF0.6946363638747822
aF0.0
ag2
(g3
g4
Ntp88
Rp89
(lp90
g2
(g8
g4
Ntp91
Rp92
(lp93
F0.2657205000000001
aF0.0
aF0.0
abag2
(g8
g4
Ntp94
Rp95
(lp96
F0.0
aF0.0
aF0.0
ababtp97
a((lp98
F0.0
aF2.5759999752044678
aF0.2890999972820282
aF0.0
aF0.6946363638747822
aF0.0
ag2
(g3
g4
Ntp99
Rp100
(lp101
g2
(g8
g4
Ntp102
Rp103
(lp104
F0.21523360500000008
aF0.0
aF0.0
abag2
(g8
g4
Ntp105
Rp106
(lp107
F0.0
aF0.0
aF0.0
ababtp108
a((lp109
F0.0
aF2.5759999752044678
aF0.2890999972820282
aF0.0
aF0.6946363638747822
aF0.0
ag2
(g3
g4
Ntp110
Rp111
(lp112
g2
(g8
g4
Ntp113
Rp114
(lp115
F0.19371024450000007
aF0.0
aF0.0
abag2
(g8
g4
Ntp116
Rp117
(lp118
F0.0
aF0.0
aF0.0
ababtp119
a((lp120
F0.0
aF2.5759999752044678
aF0.2890999972820282
aF0.0
aF0.6946363638747822
aF0.0
ag2
(g3
g4
Ntp121
Rp122
(lp123
g2
(g8
g4
Ntp124
Rp125
(lp126
F0.17433922005000008
aF0.0
aF0.0
abag2
(g8
g4
Ntp127
Rp128
(lp129
F0.0
aF0.0
aF0.0
ababtp130
a((lp131
F0.0
aF2.5759999752044678
aF0.2890999972820282
aF0.0
aF0.6946363638747822
aF0.0
ag2
(g3
g4
Ntp132
Rp133
(lp134
g2
(g8
g4
Ntp135
Rp136
(lp137
F0.15690529804500009
aF0.0
aF0.0
abag2
(g8
g4
Ntp138
Rp139
(lp140
F0.0
aF0.0
aF0.0
ababtp141
a((lp142
F0.0
aF2.5759999752044678
aF0.2890999972820282
aF0.0
aF0.6946363638747822
aF0.0
ag2
(g3
g4
Ntp143
Rp144
(lp145
g2
(g8
g4
Ntp146
Rp147
(lp148
F0.14121476824050008
aF0.0
aF0.0
abag2
(g8
g4
Ntp149
Rp150
(lp151
F0.0
aF0.0
aF0.0
ababtp152
a((lp153
F0.0
aF2.5759999752044678
aF0.2890999972820282
aF0.0
aF0.6946363638747822
aF0.0
ag2
(g3
g4
Ntp154
Rp155
(lp156
g2
(g8
g4
Ntp157
Rp158
(lp159
F0.12709329141645007
aF0.0
aF0.0
abag2
(g8
g4
Ntp160
Rp161
(lp162
F0.0
aF0.0
aF0.0
ababtp163
a((lp164
F0.0
aF2.5759999752044678
aF0.2890999972820282
aF0.0
aF0.6946363638747822
aF0.0
ag155
tp165
a((lp166
F0.0
aF2.5759999752044678
aF0.2890999972820282
aF0.0
aF0.6946363638747822
aF0.0
ag155
tp167
a((lp168
F0.0
aF2.5759999752044678
aF0.2890999972820282
aF0.0
aF0.6946363638747822
aF0.0
ag155
tp169
a((lp170
F0.0
aF2.5759999752044678
aF0.2890999972820282
aF0.0
aF0.6946363638747822
aF0.0
ag155
tp171
a((lp172
F0.0
aF2.5759999752044678
aF0.2890999972820282
aF0.0
aF0.6946363638747822
aF0.0
ag155
tp173
a((lp174
F0.0
aF2.5759999752044678
aF0.2890999972820282
aF0.0
aF0.6946363638747822
aF0.0
ag2
(g3
g4
Ntp175
Rp176
(lp177
g2
(g8
g4
Ntp178
Rp179
(lp180
F0.11438396227480506
aF0.0
aF0.0
abag2
(g8
g4
Ntp181
Rp182
(lp183
F0.0
aF0.0
aF0.0
ababtp184
a((lp185
F0.0
aF2.5759999752044678
aF0.2890999972820282
aF0.0
aF0.6946363638747822
aF0.0
ag2
(g3
g4
Ntp186
Rp187
(lp188
g2
(g8
g4
Ntp189
Rp190
(lp191
F0.10294556604732455
aF0.0
aF0.0
abag2
(g8
g4
Ntp192
Rp193
(lp194
F0.0
aF0.0
aF0.0
ababtp195
a((lp196
F0.0
aF2.5759999752044678
aF0.2890999972820282
aF0.0
aF0.6946363638747822
aF0.0
ag2
(g3
g4
Ntp197
Rp198
(lp199
g2
(g8
g4
Ntp200
Rp201
(lp202
F0.0926510094425921
aF0.0
aF0.0
abag2
(g8
g4
Ntp203
Rp204
(lp205
F0.0
aF0.0
aF0.0
ababtp206
a((lp207
F0.0
aF2.5759999752044678
aF0.2890999972820282
aF0.0
aF0.6946363638747822
aF0.0
ag2
(g3
g4
Ntp208
Rp209
(lp210
g2
(g8
g4
Ntp211
Rp212
(lp213
F0.08338590849833288
aF0.0
aF0.0
abag2
(g8
g4
Ntp214
Rp215
(lp216
F0.0
aF0.0
aF0.0
ababtp217
a((lp218
F0.0
aF2.5759999752044678
aF0.2890999972820282
aF0.0
aF0.6946363638747822
aF0.0
ag2
(g3
g4
Ntp219
Rp220
(lp221
g2
(g8
g4
Ntp222
Rp223
(lp224
F0.0750473176484996
aF0.0
aF0.0
abag2
(g8
g4
Ntp225
Rp226
(lp227
F0.0
aF0.0
aF0.0
ababtp228
a((lp229
F0.0
aF2.5759999752044678
aF0.2890999972820282
aF0.0
aF0.6946363638747822
aF0.0
ag2
(g3
g4
Ntp230
Rp231
(lp232
g2
(g8
g4
Ntp233
Rp234
(lp235
F0.06078832729528468
aF0.0
aF0.0
abag2
(g8
g4
Ntp236
Rp237
(lp238
F0.0
aF0.0
aF0.0
ababtp239
a((lp240
F0.0
aF2.5759999752044678
aF0.2890999972820282
aF0.0
aF0.6946363638747822
aF0.0
ag2
(g3
g4
Ntp241
Rp242
(lp243
g2
(g8
g4
Ntp244
Rp245
(lp246
F0.05470949456575622
aF0.0
aF0.0
abag2
(g8
g4
Ntp247
Rp248
(lp249
F0.0
aF0.0
aF0.0
ababtp250
a((lp251
F0.0
aF2.5759999752044678
aF0.2890999972820282
aF0.0
aF0.6946363638747822
aF0.0
ag2
(g3
g4
Ntp252
Rp253
(lp254
g2
(g8
g4
Ntp255
Rp256
(lp257
F0.0492385451091806
aF0.0
aF0.0
abag2
(g8
g4
Ntp258
Rp259
(lp260
F0.0
aF0.0
aF0.0
ababtp261
a((lp262
F0.0
aF2.5759999752044678
aF0.2890999972820282
aF0.0
aF0.6946363638747822
aF0.0
ag2
(g3
g4
Ntp263
Rp264
(lp265
g2
(g8
g4
Ntp266
Rp267
(lp268
F0.04431469059826254
aF0.0
aF0.0
abag2
(g8
g4
Ntp269
Rp270
(lp271
F0.0
aF0.0
aF0.0
ababtp272
a((lp273
F0.0
aF2.5759999752044678
aF0.2890999972820282
aF0.0
aF0.6946363638747822
aF0.0
ag2
(g3
g4
Ntp274
Rp275
(lp276
g2
(g8
g4
Ntp277
Rp278
(lp279
F0.039883221538436285
aF0.0
aF0.0
abag2
(g8
g4
Ntp280
Rp281
(lp282
F0.0
aF0.0
aF0.0
ababtp283
a((lp284
F0.0
aF2.5759999752044678
aF0.2890999972820282
aF0.0
aF0.6946363638747822
aF0.0
ag2
(g3
g4
Ntp285
Rp286
(lp287
g2
(g8
g4
Ntp288
Rp289
(lp290
F0.03589489938459266
aF0.0
aF0.0
abag2
(g8
g4
Ntp291
Rp292
(lp293
F0.0
aF0.0
aF0.0
ababtp294
a((lp295
F0.0
aF2.5759999752044678
aF0.2890999972820282
aF0.0
aF0.6946363638747822
aF0.0
ag2
(g3
g4
Ntp296
Rp297
(lp298
g2
(g8
g4
Ntp299
Rp300
(lp301
F0.029074868501520055
aF0.0
aF0.0
abag2
(g8
g4
Ntp302
Rp303
(lp304
F0.0
aF0.0
aF0.0
ababtp305
a((lp306
F0.0
aF2.5759999752044678
aF0.2890999972820282
aF0.0
aF0.6946363638747822
aF0.0
ag2
(g3
g4
Ntp307
Rp308
(lp309
g2
(g8
g4
Ntp310
Rp311
(lp312
F0.02616738165136805
aF0.0
aF0.0
abag2
(g8
g4
Ntp313
Rp314
(lp315
F0.0
aF0.0
aF0.0
ababtp316
a((lp317
F0.0
aF2.5759999752044678
aF0.2890999972820282
aF0.0
aF0.6946363638747822
aF0.0
ag2
(g3
g4
Ntp318
Rp319
(lp320
g2
(g8
g4
Ntp321
Rp322
(lp323
F0.023550643486231246
aF0.0
aF0.0
abag2
(g8
g4
Ntp324
Rp325
(lp326
F0.0
aF0.0
aF0.0
ababtp327
a((lp328
F0.0
aF2.5759999752044678
aF0.2890999972820282
aF0.0
aF0.6946363638747822
aF0.0
ag2
(g3
g4
Ntp329
Rp330
(lp331
g2
(g8
g4
Ntp332
Rp333
(lp334
F0.021195579137608122
aF0.0
aF0.0
abag2
(g8
g4
Ntp335
Rp336
(lp337
F0.0
aF0.0
aF0.0
ababtp338
a((lp339
F0.0
aF2.5759999752044678
aF0.2890999972820282
aF0.0
aF0.6946363638747822
aF0.0
ag2
(g3
g4
Ntp340
Rp341
(lp342
g2
(g8
g4
Ntp343
Rp344
(lp345
F0.01716841910146258
aF0.0
aF0.0
abag2
(g8
g4
Ntp346
Rp347
(lp348
F0.0
aF0.0
aF0.0
ababtp349
a((lp350
F0.0
aF2.5759999752044678
aF0.2890999972820282
aF0.0
aF0.6946363638747822
aF0.0
ag2
(g3
g4
Ntp351
Rp352
(lp353
g2
(g8
g4
Ntp354
Rp355
(lp356
F0.015451577191316321
aF0.0
aF0.0
abag2
(g8
g4
Ntp357
Rp358
(lp359
F0.0
aF0.0
aF0.0
ababtp360
a((lp361
F0.0
aF2.5759999752044678
aF0.2890999972820282
aF0.0
aF0.6946363638747822
aF0.0
ag2
(g3
g4
Ntp362
Rp363
(lp364
g2
(g8
g4
Ntp365
Rp366
(lp367
F0.01390641947218469
aF0.0
aF0.0
abag2
(g8
g4
Ntp368
Rp369
(lp370
F0.0
aF0.0
aF0.0
ababtp371
a((lp372
F0.0
aF2.5759999752044678
aF0.2890999972820282
aF0.0
aF0.6946363638747822
aF0.0
ag2
(g3
g4
Ntp373
Rp374
(lp375
g2
(g8
g4
Ntp376
Rp377
(lp378
F0.012515777524966222
aF0.0
aF0.0
abag2
(g8
g4
Ntp379
Rp380
(lp381
F0.0
aF0.0
aF0.0
ababtp382
a((lp383
F0.0
aF2.5759999752044678
aF0.2890999972820282
aF0.0
aF0.6946363638747822
aF0.0
ag2
(g3
g4
Ntp384
Rp385
(lp386
g2
(g8
g4
Ntp387
Rp388
(lp389
F0.0112641997724696
aF0.0
aF0.0
abag2
(g8
g4
Ntp390
Rp391
(lp392
F0.0
aF0.0
aF0.0
ababtp393
a((lp394
F0.0
aF2.5759999752044678
aF0.2890999972820282
aF0.0
aF0.6946363638747822
aF0.0
ag2
(g3
g4
Ntp395
Rp396
(lp397
g2
(g8
g4
Ntp398
Rp399
(lp400
F0.010137779795222639
aF0.0
aF0.0
abag2
(g8
g4
Ntp401
Rp402
(lp403
F0.0
aF0.0
aF0.0
ababtp404
a((lp405
F0.0
aF2.5759999752044678
aF0.2890999972820282
aF0.0
aF0.6946363638747822
aF0.0
ag2
(g3
g4
Ntp406
Rp407
(lp408
g2
(g8
g4
Ntp409
Rp410
(lp411
F0.008211601634130337
aF0.0
aF0.0
abag2
(g8
g4
Ntp412
Rp413
(lp414
F0.0
aF0.0
aF0.0
ababtp415
a((lp416
F0.0
aF1.505249984562397
aF0.2890999972820282
aF0.0
aF0.6946363638747822
aF0.0
ag2
(g3
g4
Ntp417
Rp418
(lp419
g2
(g8
g4
Ntp420
Rp421
(lp422
F0.007390441470717304
aF0.0
aF0.0
abag2
(g8
g4
Ntp423
Rp424
(lp425
F0.0
aF0.0
aF0.0
ababtp426
a((lp427
F0.0
aF1.505249984562397
aF0.2890999972820282
aF0.0
aF0.6946363638747822
aF0.0
ag2
(g3
g4
Ntp428
Rp429
(lp430
g2
(g8
g4
Ntp431
Rp432
(lp433
F0.006651397323645574
aF0.0
aF0.0
abag2
(g8
g4
Ntp434
Rp435
(lp436
F0.0
aF0.0
aF0.0
ababtp437
a.(lp0
((lp1
F0.0
aF2.5759999752044678
aF0.2890999972820282
aF0.0
aF0.6946363638747822
aF0.0
accopy_reg
_reconstructor
p2
(cgeometry_msgs.msg._Twist
Twist
p3
c__builtin__
object
p4
Ntp5
Rp6
(lp7
g2
(cgeometry_msgs.msg._Vector3
Vector3
p8
g4
Ntp9
Rp10
(lp11
F0.0
aF0.0
aF0.0
abag2
(g8
g4
Ntp12
Rp13
(lp14
F0.0
aF0.0
aF0.0
ababtp15
a((lp16
F0.0
aF2.5759999752044678
aF0.2890999972820282
aF0.0
aF0.6946363638747822
aF0.0
ag6
tp17
a((lp18
F0.0
aF2.5759999752044678
aF0.2890999972820282
aF0.0
aF0.6946363638747822
aF0.0
ag6
tp19
a((lp20
F0.0
aF2.5759999752044678
aF0.2890999972820282
aF0.0
aF0.6946363638747822
aF0.0
ag2
(g3
g4
Ntp21
Rp22
(lp23
g2
(g8
g4
Ntp24
Rp25
(lp26
F0.5
aF0.0
aF0.0
abag2
(g8
g4
Ntp27
Rp28
(lp29
F0.0
aF0.0
aF0.0
ababtp30
a((lp31
F0.0
aF2.5759999752044678
aF0.2890999972820282
aF0.0
aF0.6946363638747822
aF0.0
ag22
tp32
a((lp33
F0.0
aF2.5759999752044678
aF0.2890999972820282
aF0.0
aF0.6946363638747822
aF0.0
ag22
tp34
a((lp35
F0.0
aF2.5759999752044678
aF0.2890999972820282
aF0.0
aF0.6946363638747822
aF0.0
ag22
tp36
a((lp37
F0.0
aF2.5759999752044678
aF0.2890999972820282
aF0.0
aF0.6946363638747822
aF0.0
ag22
tp38
a((lp39
F0.0
aF2.5759999752044678
aF0.2890999972820282
aF0.0
aF0.6946363638747822
aF0.0
ag22
tp40
a((lp41
F0.0
aF2.5759999752044678
aF0.2890999972820282
aF0.0
aF0.6946363638747822
aF0.0
ag2
(g3
g4
Ntp42
Rp43
(lp44
g2
(g8
g4
Ntp45
Rp46
(lp47
F0.45
aF0.0
aF0.0
abag2
(g8
g4
Ntp48
Rp49
(lp50
F0.0
aF0.0
aF0.0
ababtp51
a((lp52
F0.0
aF2.5759999752044678
aF0.2890999972820282
aF0.0
aF0.6946363638747822
aF0.0
ag2
(g3
g4
Ntp53
Rp54
(lp55
g2
(g8
g4
Ntp56
Rp57
(lp58
F0.405
aF0.0
aF0.0
abag2
(g8
g4
Ntp59
Rp60
(lp61
F0.0
aF0.0
aF0.0
ababtp62
a((lp63
F0.0
aF2.5759999752044678
aF0.2890999972820282
aF0.0
aF0.6946363638747822
aF0.0
ag2
(g3
g4
Ntp64
Rp65
(lp66
g2
(g8
g4
Ntp67
Rp68
(lp69
F0.32805000000000006
aF0.0
aF0.0
abag2
(g8
g4
Ntp70
Rp71
(lp72
F0.0
aF0.0
aF0.0
ababtp73
a((lp74
F0.0
aF2.5759999752044678
aF0.2890999972820282
aF0.0
aF0.6946363638747822
aF0.0
ag2
(g3
g4
Ntp75
Rp76
(lp77
g2
(g8
g4
Ntp78
Rp79
(lp80
F0.2952450000000001
aF0.0
aF0.0
abag2
(g8
g4
Ntp81
Rp82
(lp83
F0.0
aF0.0
aF0.0
ababtp84
a((lp85
F0.0
aF2.5759999752044678
aF0.2890999972820282
aF0.0
aF0.6946363638747822
aF0.0
ag2
(g3
g4
Ntp86
Rp87
(lp88
g2
(g8
g4
Ntp89
Rp90
(lp91
F0.2657205000000001
aF0.0
aF0.0
abag2
(g8
g4
Ntp92
Rp93
(lp94
F0.0
aF0.0
aF0.0
ababtp95
a((lp96
F0.0
aF2.5759999752044678
aF0.2890999972820282
aF0.0
aF0.6946363638747822
aF0.0
ag2
(g3
g4
Ntp97
Rp98
(lp99
g2
(g8
g4
Ntp100
Rp101
(lp102
F0.23914845000000007
aF0.0
aF0.0
abag2
(g8
g4
Ntp103
Rp104
(lp105
F0.0
aF0.0
aF0.0
ababtp106
a((lp107
F0.0
aF2.5759999752044678
aF0.2890999972820282
aF0.0
aF0.6946363638747822
aF0.0
ag2
(g3
g4
Ntp108
Rp109
(lp110
g2
(g8
g4
Ntp111
Rp112
(lp113
F0.21523360500000008
aF0.0
aF0.0
abag2
(g8
g4
Ntp114
Rp115
(lp116
F0.0
aF0.0
aF0.0
ababtp117
a((lp118
F0.0
aF2.5759999752044678
aF0.2890999972820282
aF0.0
aF0.6946363638747822
aF0.0
ag2
(g3
g4
Ntp119
Rp120
(lp121
g2
(g8
g4
Ntp122
Rp123
(lp124
F0.19371024450000007
aF0.0
aF0.0
abag2
(g8
g4
Ntp125
Rp126
(lp127
F0.0
aF0.0
aF0.0
ababtp128
a((lp129
F0.0
aF2.5759999752044678
aF0.2890999972820282
aF0.0
aF0.6946363638747822
aF0.0
ag2
(g3
g4
Ntp130
Rp131
(lp132
g2
(g8
g4
Ntp133
Rp134
(lp135
F0.17433922005000008
aF0.0
aF0.0
abag2
(g8
g4
Ntp136
Rp137
(lp138
F0.0
aF0.0
aF0.0
ababtp139
a((lp140
F0.0
aF2.5759999752044678
aF0.2890999972820282
aF0.0
aF0.6946363638747822
aF0.0
ag2
(g3
g4
Ntp141
Rp142
(lp143
g2
(g8
g4
Ntp144
Rp145
(lp146
F0.15690529804500009
aF0.0
aF0.0
abag2
(g8
g4
Ntp147
Rp148
(lp149
F0.0
aF0.0
aF0.0
ababtp150
a((lp151
F0.0
aF2.5759999752044678
aF0.2890999972820282
aF0.0
aF0.6946363638747822
aF0.0
ag142
tp152
a((lp153
F0.0
aF2.5759999752044678
aF0.2890999972820282
aF0.0
aF0.6946363638747822
aF0.0
ag142
tp154
a((lp155
F0.0
aF2.5759999752044678
aF0.2890999972820282
aF0.0
aF0.6946363638747822
aF0.0
ag142
tp156
a((lp157
F0.0
aF2.5759999752044678
aF0.2890999972820282
aF0.0
aF0.6946363638747822
aF0.0
ag142
tp158
a((lp159
F0.0
aF2.5759999752044678
aF0.2890999972820282
aF0.0
aF0.6946363638747822
aF0.0
ag2
(g3
g4
Ntp160
Rp161
(lp162
g2
(g8
g4
Ntp163
Rp164
(lp165
F0.12709329141645007
aF0.0
aF0.0
abag2
(g8
g4
Ntp166
Rp167
(lp168
F0.0
aF0.0
aF0.0
ababtp169
a((lp170
F0.0
aF2.5759999752044678
aF0.2890999972820282
aF0.0
aF0.6946363638747822
aF0.0
ag2
(g3
g4
Ntp171
Rp172
(lp173
g2
(g8
g4
Ntp174
Rp175
(lp176
F0.11438396227480506
aF0.0
aF0.0
abag2
(g8
g4
Ntp177
Rp178
(lp179
F0.0
aF0.0
aF0.0
ababtp180
a((lp181
F0.0
aF2.5759999752044678
aF0.2890999972820282
aF0.0
aF0.6946363638747822
aF0.0
ag2
(g3
g4
Ntp182
Rp183
(lp184
g2
(g8
g4
Ntp185
Rp186
(lp187
F0.10294556604732455
aF0.0
aF0.0
abag2
(g8
g4
Ntp188
Rp189
(lp190
F0.0
aF0.0
aF0.0
ababtp191
a((lp192
F0.0
aF2.5759999752044678
aF0.2890999972820282
aF0.0
aF0.6946363638747822
aF0.0
ag183
tp193
a((lp194
F0.0
aF2.5759999752044678
aF0.2890999972820282
aF0.0
aF0.6946363638747822
aF0.0
ag183
tp195
a((lp196
F0.0
aF2.5759999752044678
aF0.2890999972820282
aF0.0
aF0.6946363638747822
aF0.0
ag183
tp197
a((lp198
F0.0
aF2.5759999752044678
aF0.2890999972820282
aF0.0
aF0.6946363638747822
aF0.0
ag2
(g3
g4
Ntp199
Rp200
(lp201
g2
(g8
g4
Ntp202
Rp203
(lp204
F0.0926510094425921
aF0.0
aF0.0
abag2
(g8
g4
Ntp205
Rp206
(lp207
F0.0
aF0.0
aF0.0
ababtp208
a((lp209
F0.0
aF2.5759999752044678
aF0.2890999972820282
aF0.0
aF0.6946363638747822
aF0.0
ag2
(g3
g4
Ntp210
Rp211
(lp212
g2
(g8
g4
Ntp213
Rp214
(lp215
F0.08338590849833288
aF0.0
aF0.0
abag2
(g8
g4
Ntp216
Rp217
(lp218
F0.0
aF0.0
aF0.0
ababtp219
a((lp220
F0.0
aF2.5759999752044678
aF0.2890999972820282
aF0.0
aF0.6946363638747822
aF0.0
ag211
tp221
a((lp222
F0.0
aF2.5759999752044678
aF0.2890999972820282
aF0.0
aF0.6946363638747822
aF0.0
ag211
tp223
a((lp224
F0.0
aF2.5759999752044678
aF0.2890999972820282
aF0.0
aF0.6946363638747822
aF0.0
ag211
tp225
a((lp226
F0.0
aF2.5759999752044678
aF0.2890999972820282
aF0.0
aF0.6946363638747822
aF0.0
ag211
tp227
a((lp228
F0.0
aF2.5759999752044678
aF0.2890999972820282
aF0.0
aF0.6946363638747822
aF0.0
ag2
(g3
g4
Ntp229
Rp230
(lp231
g2
(g8
g4
Ntp232
Rp233
(lp234
F0.0750473176484996
aF0.0
aF0.0
abag2
(g8
g4
Ntp235
Rp236
(lp237
F0.0
aF0.0
aF0.0
ababtp238
a((lp239
F0.0
aF2.5759999752044678
aF0.2890999972820282
aF0.0
aF0.6946363638747822
aF0.0
ag2
(g3
g4
Ntp240
Rp241
(lp242
g2
(g8
g4
Ntp243
Rp244
(lp245
F0.06754258588364964
aF0.0
aF0.0
abag2
(g8
g4
Ntp246
Rp247
(lp248
F0.0
aF0.0
aF0.0
ababtp249
a((lp250
F0.0
aF2.5759999752044678
aF0.2890999972820282
aF0.0
aF0.6946363638747822
aF0.0
ag2
(g3
g4
Ntp251
Rp252
(lp253
g2
(g8
g4
Ntp254
Rp255
(lp256
F0.06078832729528468
aF0.0
aF0.0
abag2
(g8
g4
Ntp257
Rp258
(lp259
F0.0
aF0.0
aF0.0
ababtp260
a((lp261
F0.0
aF2.5759999752044678
aF0.2890999972820282
aF0.0
aF0.6946363638747822
aF0.0
ag2
(g3
g4
Ntp262
Rp263
(lp264
g2
(g8
g4
Ntp265
Rp266
(lp267
F0.05470949456575622
aF0.0
aF0.0
abag2
(g8
g4
Ntp268
Rp269
(lp270
F0.0
aF0.0
aF0.0
ababtp271
a((lp272
F0.0
aF2.5759999752044678
aF0.2890999972820282
aF0.0
aF0.6946363638747822
aF0.0
ag2
(g3
g4
Ntp273
Rp274
(lp275
g2
(g8
g4
Ntp276
Rp277
(lp278
F0.0492385451091806
aF0.0
aF0.0
abag2
(g8
g4
Ntp279
Rp280
(lp281
F0.0
aF0.0
aF0.0
ababtp282
a((lp283
F0.0
aF2.5759999752044678
aF0.2890999972820282
aF0.0
aF0.6946363638747822
aF0.0
ag2
(g3
g4
Ntp284
Rp285
(lp286
g2
(g8
g4
Ntp287
Rp288
(lp289
F0.04431469059826254
aF0.0
aF0.0
abag2
(g8
g4
Ntp290
Rp291
(lp292
F0.0
aF0.0
aF0.0
ababtp293
a((lp294
F0.0
aF2.5759999752044678
aF0.2890999972820282
aF0.0
aF0.6946363638747822
aF0.0
ag2
(g3
g4
Ntp295
Rp296
(lp297
g2
(g8
g4
Ntp298
Rp299
(lp300
F0.039883221538436285
aF0.0
aF0.0
abag2
(g8
g4
Ntp301
Rp302
(lp303
F0.0
aF0.0
aF0.0
ababtp304
a((lp305
F0.0
aF2.5759999752044678
aF0.2890999972820282
aF0.0
aF0.6946363638747822
aF0.0
ag2
(g3
g4
Ntp306
Rp307
(lp308
g2
(g8
g4
Ntp309
Rp310
(lp311
F0.03589489938459266
aF0.0
aF0.0
abag2
(g8
g4
Ntp312
Rp313
(lp314
F0.0
aF0.0
aF0.0
ababtp315
a((lp316
F0.0
aF2.5759999752044678
aF0.2890999972820282
aF0.0
aF0.6946363638747822
aF0.0
ag2
(g3
g4
Ntp317
Rp318
(lp319
g2
(g8
g4
Ntp320
Rp321
(lp322
F0.032305409446133394
aF0.0
aF0.0
abag2
(g8
g4
Ntp323
Rp324
(lp325
F0.0
aF0.0
aF0.0
ababtp326
a((lp327
F0.0
aF2.5759999752044678
aF0.2890999972820282
aF0.0
aF0.6946363638747822
aF0.0
ag2
(g3
g4
Ntp328
Rp329
(lp330
g2
(g8
g4
Ntp331
Rp332
(lp333
F0.029074868501520055
aF0.0
aF0.0
abag2
(g8
g4
Ntp334
Rp335
(lp336
F0.0
aF0.0
aF0.0
ababtp337
a((lp338
F0.0
aF2.5759999752044678
aF0.2890999972820282
aF0.0
aF0.6946363638747822
aF0.0
ag2
(g3
g4
Ntp339
Rp340
(lp341
g2
(g8
g4
Ntp342
Rp343
(lp344
F0.02616738165136805
aF0.0
aF0.0
abag2
(g8
g4
Ntp345
Rp346
(lp347
F0.0
aF0.0
aF0.0
ababtp348
a((lp349
F0.0
aF2.5759999752044678
aF0.2890999972820282
aF0.0
aF0.6946363638747822
aF0.0
ag2
(g3
g4
Ntp350
Rp351
(lp352
g2
(g8
g4
Ntp353
Rp354
(lp355
F0.023550643486231246
aF0.0
aF0.0
abag2
(g8
g4
Ntp356
Rp357
(lp358
F0.0
aF0.0
aF0.0
ababtp359
a((lp360
F0.0
aF2.5759999752044678
aF0.2890999972820282
aF0.0
aF0.6946363638747822
aF0.0
ag2
(g3
g4
Ntp361
Rp362
(lp363
g2
(g8
g4
Ntp364
Rp365
(lp366
F0.021195579137608122
aF0.0
aF0.0
abag2
(g8
g4
Ntp367
Rp368
(lp369
F0.0
aF0.0
aF0.0
ababtp370
a((lp371
F0.0
aF2.5759999752044678
aF0.2890999972820282
aF0.0
aF0.6946363638747822
aF0.0
ag2
(g3
g4
Ntp372
Rp373
(lp374
g2
(g8
g4
Ntp375
Rp376
(lp377
F0.01907602122384731
aF0.0
aF0.0
abag2
(g8
g4
Ntp378
Rp379
(lp380
F0.0
aF0.0
aF0.0
ababtp381
a((lp382
F0.0
aF2.5759999752044678
aF0.2890999972820282
aF0.0
aF0.6946363638747822
aF0.0
ag2
(g3
g4
Ntp383
Rp384
(lp385
g2
(g8
g4
Ntp386
Rp387
(lp388
F0.01716841910146258
aF0.0
aF0.0
abag2
(g8
g4
Ntp389
Rp390
(lp391
F0.0
aF0.0
aF0.0
ababtp392
a.(lp0
((lp1
F0.0
aF2.5759999752044678
aF0.2890999972820282
aF0.0
aF0.6946363638747822
aF0.0
accopy_reg
_reconstructor
p2
(cgeometry_msgs.msg._Twist
Twist
p3
c__builtin__
object
p4
Ntp5
Rp6
(lp7
g2
(cgeometry_msgs.msg._Vector3
Vector3
p8
g4
Ntp9
Rp10
(lp11
F0.0
aF0.0
aF0.0
abag2
(g8
g4
Ntp12
Rp13
(lp14
F0.0
aF0.0
aF0.0
ababtp15
a((lp16
F0.0
aF2.5759999752044678
aF0.2890999972820282
aF0.0
aF0.6946363638747822
aF0.0
ag6
tp17
a((lp18
F0.0
aF2.5759999752044678
aF0.2890999972820282
aF0.0
aF0.6946363638747822
aF0.0
ag2
(g3
g4
Ntp19
Rp20
(lp21
g2
(g8
g4
Ntp22
Rp23
(lp24
F0.5
aF0.0
aF0.0
abag2
(g8
g4
Ntp25
Rp26
(lp27
F0.0
aF0.0
aF0.0
ababtp28
a((lp29
F0.0
aF2.5759999752044678
aF0.2890999972820282
aF0.0
aF0.6946363638747822
aF0.0
ag20
tp30
a((lp31
F0.0
aF2.5759999752044678
aF0.2890999972820282
aF0.0
aF0.6946363638747822
aF0.0
ag20
tp32
a((lp33
F0.0
aF2.5759999752044678
aF0.2890999972820282
aF0.0
aF0.6946363638747822
aF0.0
ag2
(g3
g4
Ntp34
Rp35
(lp36
g2
(g8
g4
Ntp37
Rp38
(lp39
F0.45
aF0.0
aF0.0
abag2
(g8
g4
Ntp40
Rp41
(lp42
F0.0
aF0.0
aF0.0
ababtp43
a((lp44
F0.0
aF2.5759999752044678
aF0.2890999972820282
aF0.0
aF0.6946363638747822
aF0.0
ag35
tp45
a((lp46
F0.0
aF2.5759999752044678
aF0.2890999972820282
aF0.0
aF0.6946363638747822
aF0.0
ag2
(g3
g4
Ntp47
Rp48
(lp49
g2
(g8
g4
Ntp50
Rp51
(lp52
F0.405
aF0.0
aF0.0
abag2
(g8
g4
Ntp53
Rp54
(lp55
F0.0
aF0.0
aF0.0
ababtp56
a((lp57
F0.0
aF2.5759999752044678
aF0.2890999972820282
aF0.0
aF0.6946363638747822
aF0.0
ag2
(g3
g4
Ntp58
Rp59
(lp60
g2
(g8
g4
Ntp61
Rp62
(lp63
F0.36450000000000005
aF0.0
aF0.0
abag2
(g8
g4
Ntp64
Rp65
(lp66
F0.0
aF0.0
aF0.0
ababtp67
a((lp68
F0.0
aF2.5759999752044678
aF0.2890999972820282
aF0.0
aF0.6946363638747822
aF0.0
ag2
(g3
g4
Ntp69
Rp70
(lp71
g2
(g8
g4
Ntp72
Rp73
(lp74
F0.32805000000000006
aF0.0
aF0.0
abag2
(g8
g4
Ntp75
Rp76
(lp77
F0.0
aF0.0
aF0.0
ababtp78
a((lp79
F0.0
aF2.5759999752044678
aF0.2890999972820282
aF0.0
aF0.6946363638747822
aF0.0
ag2
(g3
g4
Ntp80
Rp81
(lp82
g2
(g8
g4
Ntp83
Rp84
(lp85
F0.2952450000000001
aF0.0
aF0.0
abag2
(g8
g4
Ntp86
Rp87
(lp88
F0.0
aF0.0
aF0.0
ababtp89
a((lp90
F0.0
aF2.5759999752044678
aF0.2890999972820282
aF0.0
aF0.6946363638747822
aF0.0
ag2
(g3
g4
Ntp91
Rp92
(lp93
g2
(g8
g4
Ntp94
Rp95
(lp96
F0.2657205000000001
aF0.0
aF0.0
abag2
(g8
g4
Ntp97
Rp98
(lp99
F0.0
aF0.0
aF0.0
ababtp100
a((lp101
F0.0
aF2.5759999752044678
aF0.2890999972820282
aF0.0
aF0.6946363638747822
aF0.0
ag2
(g3
g4
Ntp102
Rp103
(lp104
g2
(g8
g4
Ntp105
Rp106
(lp107
F0.21523360500000008
aF0.0
aF0.0
abag2
(g8
g4
Ntp108
Rp109
(lp110
F0.0
aF0.0
aF0.0
ababtp111
a((lp112
F0.0
aF2.5759999752044678
aF0.2890999972820282
aF0.0
aF0.6946363638747822
aF0.0
ag2
(g3
g4
Ntp113
Rp114
(lp115
g2
(g8
g4
Ntp116
Rp117
(lp118
F0.19371024450000007
aF0.0
aF0.0
abag2
(g8
g4
Ntp119
Rp120
(lp121
F0.0
aF0.0
aF0.0
ababtp122
a((lp123
F0.0
aF2.5759999752044678
aF0.2890999972820282
aF0.0
aF0.6946363638747822
aF0.0
ag2
(g3
g4
Ntp124
Rp125
(lp126
g2
(g8
g4
Ntp127
Rp128
(lp129
F0.17433922005000008
aF0.0
aF0.0
abag2
(g8
g4
Ntp130
Rp131
(lp132
F0.0
aF0.0
aF0.0
ababtp133
a((lp134
F0.0
aF2.5759999752044678
aF0.2890999972820282
aF0.0
aF0.6946363638747822
aF0.0
ag125
tp135
a((lp136
F0.0
aF2.5759999752044678
aF0.2890999972820282
aF0.0
aF0.6946363638747822
aF0.0
ag2
(g3
g4
Ntp137
Rp138
(lp139
g2
(g8
g4
Ntp140
Rp141
(lp142
F0.15690529804500009
aF0.0
aF0.0
abag2
(g8
g4
Ntp143
Rp144
(lp145
F0.0
aF0.0
aF0.0
ababtp146
a((lp147
F0.0
aF2.5759999752044678
aF0.2890999972820282
aF0.0
aF0.6946363638747822
aF0.0
ag138
tp148
a((lp149
F0.0
aF2.5759999752044678
aF0.2890999972820282
aF0.0
aF0.6946363638747822
aF0.0
ag138
tp150
a((lp151
F0.0
aF2.5759999752044678
aF0.2890999972820282
aF0.0
aF0.6946363638747822
aF0.0
ag138
tp152
a((lp153
F0.0
aF2.5759999752044678
aF0.2890999972820282
aF0.0
aF0.6946363638747822
aF0.0
ag2
(g3
g4
Ntp154
Rp155
(lp156
g2
(g8
g4
Ntp157
Rp158
(lp159
F0.14121476824050008
aF0.0
aF0.0
abag2
(g8
g4
Ntp160
Rp161
(lp162
F0.0
aF0.0
aF0.0
ababtp163
a((lp164
F0.0
aF2.5759999752044678
aF0.2890999972820282
aF0.0
aF0.6946363638747822
aF0.0
ag155
tp165
a((lp166
F0.0
aF2.5759999752044678
aF0.2890999972820282
aF0.0
aF0.6946363638747822
aF0.0
ag155
tp167
a((lp168
F0.0
aF2.5759999752044678
aF0.2890999972820282
aF0.0
aF0.6946363638747822
aF0.0
ag2
(g3
g4
Ntp169
Rp170
(lp171
g2
(g8
g4
Ntp172
Rp173
(lp174
F0.12709329141645007
aF0.0
aF0.0
abag2
(g8
g4
Ntp175
Rp176
(lp177
F0.0
aF0.0
aF0.0
ababtp178
a((lp179
F0.0
aF2.5759999752044678
aF0.2890999972820282
aF0.0
aF0.6946363638747822
aF0.0
ag170
tp180
a((lp181
F0.0
aF2.5759999752044678
aF0.2890999972820282
aF0.0
aF0.6946363638747822
aF0.0
ag170
tp182
a((lp183
F0.0
aF2.5759999752044678
aF0.2890999972820282
aF0.0
aF0.6946363638747822
aF0.0
ag170
tp184
a((lp185
F0.0
aF2.5759999752044678
aF0.2890999972820282
aF0.0
aF0.6946363638747822
aF0.0
ag2
(g3
g4
Ntp186
Rp187
(lp188
g2
(g8
g4
Ntp189
Rp190
(lp191
F0.11438396227480506
aF0.0
aF0.0
abag2
(g8
g4
Ntp192
Rp193
(lp194
F0.0
aF0.0
aF0.0
ababtp195
a((lp196
F0.0
aF2.5759999752044678
aF0.2890999972820282
aF0.0
aF0.6946363638747822
aF0.0
ag187
tp197
a((lp198
F0.0
aF2.5759999752044678
aF0.2890999972820282
aF0.0
aF0.6946363638747822
aF0.0
ag2
(g3
g4
Ntp199
Rp200
(lp201
g2
(g8
g4
Ntp202
Rp203
(lp204
F0.10294556604732455
aF0.0
aF0.0
abag2
(g8
g4
Ntp205
Rp206
(lp207
F0.0
aF0.0
aF0.0
ababtp208
a((lp209
F0.0
aF2.5759999752044678
aF0.2890999972820282
aF0.0
aF0.6946363638747822
aF0.0
ag200
tp210
a((lp211
F0.0
aF2.5759999752044678
aF0.2890999972820282
aF0.0
aF0.6946363638747822
aF0.0
ag200
tp212
a((lp213
F0.0
aF2.5759999752044678
aF0.2890999972820282
aF0.0
aF0.6946363638747822
aF0.0
ag2
(g3
g4
Ntp214
Rp215
(lp216
g2
(g8
g4
Ntp217
Rp218
(lp219
F0.0926510094425921
aF0.0
aF0.0
abag2
(g8
g4
Ntp220
Rp221
(lp222
F0.0
aF0.0
aF0.0
ababtp223
a((lp224
F0.0
aF2.5759999752044678
aF0.2890999972820282
aF0.0
aF0.6946363638747822
aF0.0
ag215
tp225
a((lp226
F0.0
aF2.5759999752044678
aF0.2890999972820282
aF0.0
aF0.6946363638747822
aF0.0
ag2
(g3
g4
Ntp227
Rp228
(lp229
g2
(g8
g4
Ntp230
Rp231
(lp232
F0.08338590849833288
aF0.0
aF0.0
abag2
(g8
g4
Ntp233
Rp234
(lp235
F0.0
aF0.0
aF0.0
ababtp236
a((lp237
F0.0
aF2.5759999752044678
aF0.2890999972820282
aF0.0
aF0.6946363638747822
aF0.0
ag228
tp238
a((lp239
F0.0
aF2.5759999752044678
aF0.2890999972820282
aF0.0
aF0.6946363638747822
aF0.0
ag2
(g3
g4
Ntp240
Rp241
(lp242
g2
(g8
g4
Ntp243
Rp244
(lp245
F0.0750473176484996
aF0.0
aF0.0
abag2
(g8
g4
Ntp246
Rp247
(lp248
F0.0
aF0.0
aF0.0
ababtp249
a((lp250
F0.0
aF2.5759999752044678
aF0.2890999972820282
aF0.0
aF0.6946363638747822
aF0.0
ag241
tp251
a((lp252
F0.0
aF2.5759999752044678
aF0.2890999972820282
aF0.0
aF0.6946363638747822
aF0.0
ag2
(g3
g4
Ntp253
Rp254
(lp255
g2
(g8
g4
Ntp256
Rp257
(lp258
F0.06754258588364964
aF0.0
aF0.0
abag2
(g8
g4
Ntp259
Rp260
(lp261
F0.0
aF0.0
aF0.0
ababtp262
a((lp263
F0.0
aF2.5759999752044678
aF0.2890999972820282
aF0.0
aF0.6946363638747822
aF0.0
ag2
(g3
g4
Ntp264
Rp265
(lp266
g2
(g8
g4
Ntp267
Rp268
(lp269
F0.05470949456575622
aF0.0
aF0.0
abag2
(g8
g4
Ntp270
Rp271
(lp272
F0.0
aF0.0
aF0.0
ababtp273
a((lp274
F0.0
aF2.5759999752044678
aF0.2890999972820282
aF0.0
aF0.6946363638747822
aF0.0
ag2
(g3
g4
Ntp275
Rp276
(lp277
g2
(g8
g4
Ntp278
Rp279
(lp280
F0.0492385451091806
aF0.0
aF0.0
abag2
(g8
g4
Ntp281
Rp282
(lp283
F0.0
aF0.0
aF0.0
ababtp284
a((lp285
F0.0
aF2.5759999752044678
aF0.2890999972820282
aF0.0
aF0.6946363638747822
aF0.0
ag2
(g3
g4
Ntp286
Rp287
(lp288
g2
(g8
g4
Ntp289
Rp290
(lp291
F0.04431469059826254
aF0.0
aF0.0
abag2
(g8
g4
Ntp292
Rp293
(lp294
F0.0
aF0.0
aF0.0
ababtp295
a((lp296
F0.0
aF2.5759999752044678
aF0.2890999972820282
aF0.0
aF0.6946363638747822
aF0.0
ag2
(g3
g4
Ntp297
Rp298
(lp299
g2
(g8
g4
Ntp300
Rp301
(lp302
F0.039883221538436285
aF0.0
aF0.0
abag2
(g8
g4
Ntp303
Rp304
(lp305
F0.0
aF0.0
aF0.0
ababtp306
a((lp307
F0.0
aF2.5759999752044678
aF0.2890999972820282
aF0.0
aF0.6946363638747822
aF0.0
ag2
(g3
g4
Ntp308
Rp309
(lp310
g2
(g8
g4
Ntp311
Rp312
(lp313
F0.032305409446133394
aF0.0
aF0.0
abag2
(g8
g4
Ntp314
Rp315
(lp316
F0.0
aF0.0
aF0.0
ababtp317
a((lp318
F0.0
aF2.5759999752044678
aF0.2890999972820282
aF0.0
aF0.6946363638747822
aF0.0
ag2
(g3
g4
Ntp319
Rp320
(lp321
g2
(g8
g4
Ntp322
Rp323
(lp324
F0.029074868501520055
aF0.0
aF0.0
abag2
(g8
g4
Ntp325
Rp326
(lp327
F0.0
aF0.0
aF0.0
ababtp328
a((lp329
F0.0
aF2.5759999752044678
aF0.2890999972820282
aF0.0
aF0.6946363638747822
aF0.0
ag2
(g3
g4
Ntp330
Rp331
(lp332
g2
(g8
g4
Ntp333
Rp334
(lp335
F0.02616738165136805
aF0.0
aF0.0
abag2
(g8
g4
Ntp336
Rp337
(lp338
F0.0
aF0.0
aF0.0
ababtp339
a((lp340
F0.0
aF2.5759999752044678
aF0.2890999972820282
aF0.0
aF0.6946363638747822
aF0.0
ag2
(g3
g4
Ntp341
Rp342
(lp343
g2
(g8
g4
Ntp344
Rp345
(lp346
F0.021195579137608122
aF0.0
aF0.0
abag2
(g8
g4
Ntp347
Rp348
(lp349
F0.0
aF0.0
aF0.0
ababtp350
a((lp351
F0.0
aF2.5759999752044678
aF0.2890999972820282
aF0.0
aF0.6946363638747822
aF0.0
ag2
(g3
g4
Ntp352
Rp353
(lp354
g2
(g8
g4
Ntp355
Rp356
(lp357
F0.01907602122384731
aF0.0
aF0.0
abag2
(g8
g4
Ntp358
Rp359
(lp360
F0.0
aF0.0
aF0.0
ababtp361
a((lp362
F0.0
aF2.5759999752044678
aF0.2890999972820282
aF0.0
aF0.6946363638747822
aF0.0
ag2
(g3
g4
Ntp363
Rp364
(lp365
g2
(g8
g4
Ntp366
Rp367
(lp368
F0.01716841910146258
aF0.0
aF0.0
abag2
(g8
g4
Ntp369
Rp370
(lp371
F0.0
aF0.0
aF0.0
ababtp372
a((lp373
F0.0
aF2.5759999752044678
aF0.2890999972820282
aF0.0
aF0.6946363638747822
aF0.0
ag364
tp374
a.(lp0
((lp1
F0.0
aF2.5759999752044678
aF0.2890999972820282
aF0.0
aF0.6946363638747822
aF0.0
accopy_reg
_reconstructor
p2
(cgeometry_msgs.msg._Twist
Twist
p3
c__builtin__
object
p4
Ntp5
Rp6
(lp7
g2
(cgeometry_msgs.msg._Vector3
Vector3
p8
g4
Ntp9
Rp10
(lp11
F0.0
aF0.0
aF0.0
abag2
(g8
g4
Ntp12
Rp13
(lp14
F0.0
aF0.0
aF0.0
ababtp15
a((lp16
F0.0
aF2.5759999752044678
aF0.2890999972820282
aF0.0
aF0.6946363638747822
aF0.0
ag6
tp17
a((lp18
F0.0
aF2.5759999752044678
aF0.2890999972820282
aF0.0
aF0.6946363638747822
aF0.0
ag2
(g3
g4
Ntp19
Rp20
(lp21
g2
(g8
g4
Ntp22
Rp23
(lp24
F0.5
aF0.0
aF0.0
abag2
(g8
g4
Ntp25
Rp26
(lp27
F0.0
aF0.0
aF0.0
ababtp28
a((lp29
F0.0
aF2.5759999752044678
aF0.2890999972820282
aF0.0
aF0.6946363638747822
aF0.0
ag20
tp30
a((lp31
F0.0
aF2.5759999752044678
aF0.2890999972820282
aF0.0
aF0.6946363638747822
aF0.0
ag20
tp32
a((lp33
F0.0
aF2.5759999752044678
aF0.2890999972820282
aF0.0
aF0.6946363638747822
aF0.0
ag2
(g3
g4
Ntp34
Rp35
(lp36
g2
(g8
g4
Ntp37
Rp38
(lp39
F0.45
aF0.0
aF0.0
abag2
(g8
g4
Ntp40
Rp41
(lp42
F0.0
aF0.0
aF0.0
ababtp43
a((lp44
F0.0
aF2.5759999752044678
aF0.2890999972820282
aF0.0
aF0.6946363638747822
aF0.0
ag2
(g3
g4
Ntp45
Rp46
(lp47
g2
(g8
g4
Ntp48
Rp49
(lp50
F0.405
aF0.0
aF0.0
abag2
(g8
g4
Ntp51
Rp52
(lp53
F0.0
aF0.0
aF0.0
ababtp54
a((lp55
F0.0
aF2.5759999752044678
aF0.2890999972820282
aF0.0
aF0.6946363638747822
aF0.0
ag46
tp56
a((lp57
F0.0
aF2.5759999752044678
aF0.2890999972820282
aF0.0
aF0.6946363638747822
aF0.0
ag2
(g3
g4
Ntp58
Rp59
(lp60
g2
(g8
g4
Ntp61
Rp62
(lp63
F0.36450000000000005
aF0.0
aF0.0
abag2
(g8
g4
Ntp64
Rp65
(lp66
F0.0
aF0.0
aF0.0
ababtp67
a((lp68
F0.0
aF2.5759999752044678
aF0.2890999972820282
aF0.0
aF0.6946363638747822
aF0.0
ag2
(g3
g4
Ntp69
Rp70
(lp71
g2
(g8
g4
Ntp72
Rp73
(lp74
F0.32805000000000006
aF0.0
aF0.0
abag2
(g8
g4
Ntp75
Rp76
(lp77
F0.0
aF0.0
aF0.0
ababtp78
a((lp79
F0.0
aF2.5759999752044678
aF0.2890999972820282
aF0.0
aF0.6946363638747822
aF0.0
ag2
(g3
g4
Ntp80
Rp81
(lp82
g2
(g8
g4
Ntp83
Rp84
(lp85
F0.2952450000000001
aF0.0
aF0.0
abag2
(g8
g4
Ntp86
Rp87
(lp88
F0.0
aF0.0
aF0.0
ababtp89
a((lp90
F0.0
aF2.5759999752044678
aF0.2890999972820282
aF0.0
aF0.6946363638747822
aF0.0
ag2
(g3
g4
Ntp91
Rp92
(lp93
g2
(g8
g4
Ntp94
Rp95
(lp96
F0.2657205000000001
aF0.0
aF0.0
abag2
(g8
g4
Ntp97
Rp98
(lp99
F0.0
aF0.0
aF0.0
ababtp100
a((lp101
F0.0
aF2.5759999752044678
aF0.2890999972820282
aF0.0
aF0.6946363638747822
aF0.0
ag92
tp102
a((lp103
F0.0
aF2.5759999752044678
aF0.2890999972820282
aF0.0
aF0.6946363638747822
aF0.0
ag2
(g3
g4
Ntp104
Rp105
(lp106
g2
(g8
g4
Ntp107
Rp108
(lp109
F0.23914845000000007
aF0.0
aF0.0
abag2
(g8
g4
Ntp110
Rp111
(lp112
F0.0
aF0.0
aF0.0
ababtp113
a((lp114
F0.0
aF2.5759999752044678
aF0.2890999972820282
aF0.0
aF0.6946363638747822
aF0.0
ag2
(g3
g4
Ntp115
Rp116
(lp117
g2
(g8
g4
Ntp118
Rp119
(lp120
F0.21523360500000008
aF0.0
aF0.0
abag2
(g8
g4
Ntp121
Rp122
(lp123
F0.0
aF0.0
aF0.0
ababtp124
a((lp125
F0.0
aF2.5759999752044678
aF0.2890999972820282
aF0.0
aF0.6946363638747822
aF0.0
ag2
(g3
g4
Ntp126
Rp127
(lp128
g2
(g8
g4
Ntp129
Rp130
(lp131
F0.19371024450000007
aF0.0
aF0.0
abag2
(g8
g4
Ntp132
Rp133
(lp134
F0.0
aF0.0
aF0.0
ababtp135
a((lp136
F0.0
aF2.5759999752044678
aF0.2890999972820282
aF0.0
aF0.6946363638747822
aF0.0
ag2
(g3
g4
Ntp137
Rp138
(lp139
g2
(g8
g4
Ntp140
Rp141
(lp142
F0.17433922005000008
aF0.0
aF0.0
abag2
(g8
g4
Ntp143
Rp144
(lp145
F0.0
aF0.0
aF0.0
ababtp146
a((lp147
F0.0
aF2.5759999752044678
aF0.2890999972820282
aF0.0
aF0.6946363638747822
aF0.0
ag2
(g3
g4
Ntp148
Rp149
(lp150
g2
(g8
g4
Ntp151
Rp152
(lp153
F0.15690529804500009
aF0.0
aF0.0
abag2
(g8
g4
Ntp154
Rp155
(lp156
F0.0
aF0.0
aF0.0
ababtp157
a((lp158
F0.0
aF2.5759999752044678
aF0.2890999972820282
aF0.0
aF0.6946363638747822
aF0.0
ag2
(g3
g4
Ntp159
Rp160
(lp161
g2
(g8
g4
Ntp162
Rp163
(lp164
F0.14121476824050008
aF0.0
aF0.0
abag2
(g8
g4
Ntp165
Rp166
(lp167
F0.0
aF0.0
aF0.0
ababtp168
a((lp169
F0.0
aF2.5759999752044678
aF0.2890999972820282
aF0.0
aF0.6946363638747822
aF0.0
ag2
(g3
g4
Ntp170
Rp171
(lp172
g2
(g8
g4
Ntp173
Rp174
(lp175
F0.12709329141645007
aF0.0
aF0.0
abag2
(g8
g4
Ntp176
Rp177
(lp178
F0.0
aF0.0
aF0.0
ababtp179
a((lp180
F0.0
aF2.5759999752044678
aF0.2890999972820282
aF0.0
aF0.6946363638747822
aF0.0
ag2
(g3
g4
Ntp181
Rp182
(lp183
g2
(g8
g4
Ntp184
Rp185
(lp186
F0.11438396227480506
aF0.0
aF0.0
abag2
(g8
g4
Ntp187
Rp188
(lp189
F0.0
aF0.0
aF0.0
ababtp190
a((lp191
F0.0
aF2.5759999752044678
aF0.2890999972820282
aF0.0
aF0.6946363638747822
aF0.0
ag182
tp192
a((lp193
F0.0
aF2.5759999752044678
aF0.2890999972820282
aF0.0
aF0.6946363638747822
aF0.0
ag2
(g3
g4
Ntp194
Rp195
(lp196
g2
(g8
g4
Ntp197
Rp198
(lp199
F0.10294556604732455
aF0.0
aF0.0
abag2
(g8
g4
Ntp200
Rp201
(lp202
F0.0
aF0.0
aF0.0
ababtp203
a((lp204
F0.0
aF2.5759999752044678
aF0.2890999972820282
aF0.0
aF0.6946363638747822
aF0.0
ag195
tp205
a((lp206
F0.0
aF2.5759999752044678
aF0.2890999972820282
aF0.0
aF0.6946363638747822
aF0.0
ag195
tp207
a((lp208
F0.0
aF2.5759999752044678
aF0.2890999972820282
aF0.0
aF0.6946363638747822
aF0.0
ag195
tp209
a((lp210
F0.0
aF2.5759999752044678
aF0.2890999972820282
aF0.0
aF0.6946363638747822
aF0.0
ag195
tp211
a((lp212
F0.0
aF2.5759999752044678
aF0.2890999972820282
aF0.0
aF0.6946363638747822
aF0.0
ag195
tp213
a((lp214
F0.0
aF2.5759999752044678
aF0.2890999972820282
aF0.0
aF0.6946363638747822
aF0.0
ag2
(g3
g4
Ntp215
Rp216
(lp217
g2
(g8
g4
Ntp218
Rp219
(lp220
F0.0926510094425921
aF0.0
aF0.0
abag2
(g8
g4
Ntp221
Rp222
(lp223
F0.0
aF0.0
aF0.0
ababtp224
a((lp225
F0.0
aF2.5759999752044678
aF0.2890999972820282
aF0.0
aF0.6946363638747822
aF0.0
ag216
tp226
a((lp227
F0.0
aF2.5759999752044678
aF0.2890999972820282
aF0.0
aF0.6946363638747822
aF0.0
ag2
(g3
g4
Ntp228
Rp229
(lp230
g2
(g8
g4
Ntp231
Rp232
(lp233
F0.08338590849833288
aF0.0
aF0.0
abag2
(g8
g4
Ntp234
Rp235
(lp236
F0.0
aF0.0
aF0.0
ababtp237
a((lp238
F0.0
aF2.5759999752044678
aF0.2890999972820282
aF0.0
aF0.6946363638747822
aF0.0
ag229
tp239
a((lp240
F0.0
aF2.5759999752044678
aF0.2890999972820282
aF0.0
aF0.6946363638747822
aF0.0
ag229
tp241
a((lp242
F0.0
aF2.5759999752044678
aF0.2890999972820282
aF0.0
aF0.6946363638747822
aF0.0
ag229
tp243
a((lp244
F0.0
aF2.5759999752044678
aF0.2890999972820282
aF0.0
aF0.6946363638747822
aF0.0
ag229
tp245
a((lp246
F0.0
aF2.5759999752044678
aF0.2890999972820282
aF0.0
aF0.6946363638747822
aF0.0
ag2
(g3
g4
Ntp247
Rp248
(lp249
g2
(g8
g4
Ntp250
Rp251
(lp252
F0.0750473176484996
aF0.0
aF0.0
abag2
(g8
g4
Ntp253
Rp254
(lp255
F0.0
aF0.0
aF0.0
ababtp256
a((lp257
F0.0
aF2.5759999752044678
aF0.2890999972820282
aF0.0
aF0.6946363638747822
aF0.0
ag248
tp258
a((lp259
F0.0
aF2.5759999752044678
aF0.2890999972820282
aF0.0
aF0.6946363638747822
aF0.0
ag248
tp260
a((lp261
F0.0
aF2.5759999752044678
aF0.2890999972820282
aF0.0
aF0.6946363638747822
aF0.0
ag2
(g3
g4
Ntp262
Rp263
(lp264
g2
(g8
g4
Ntp265
Rp266
(lp267
F0.06754258588364964
aF0.0
aF0.0
abag2
(g8
g4
Ntp268
Rp269
(lp270
F0.0
aF0.0
aF0.0
ababtp271
a((lp272
F0.0
aF2.5759999752044678
aF0.2890999972820282
aF0.0
aF0.6946363638747822
aF0.0
ag263
tp273
a((lp274
F0.0
aF2.5759999752044678
aF0.2890999972820282
aF0.0
aF0.6946363638747822
aF0.0
ag263
tp275
a((lp276
F0.0
aF2.5759999752044678
aF0.2890999972820282
aF0.0
aF0.6946363638747822
aF0.0
ag2
(g3
g4
Ntp277
Rp278
(lp279
g2
(g8
g4
Ntp280
Rp281
(lp282
F0.06078832729528468
aF0.0
aF0.0
abag2
(g8
g4
Ntp283
Rp284
(lp285
F0.0
aF0.0
aF0.0
ababtp286
a((lp287
F0.0
aF2.5759999752044678
aF0.2890999972820282
aF0.0
aF0.6946363638747822
aF0.0
ag278
tp288
a((lp289
F0.0
aF2.5759999752044678
aF0.2890999972820282
aF0.0
aF0.6946363638747822
aF0.0
ag2
(g3
g4
Ntp290
Rp291
(lp292
g2
(g8
g4
Ntp293
Rp294
(lp295
F0.05470949456575622
aF0.0
aF0.0
abag2
(g8
g4
Ntp296
Rp297
(lp298
F0.0
aF0.0
aF0.0
ababtp299
a((lp300
F0.0
aF2.5759999752044678
aF0.2890999972820282
aF0.0
aF0.6946363638747822
aF0.0
ag2
(g3
g4
Ntp301
Rp302
(lp303
g2
(g8
g4
Ntp304
Rp305
(lp306
F0.0492385451091806
aF0.0
aF0.0
abag2
(g8
g4
Ntp307
Rp308
(lp309
F0.0
aF0.0
aF0.0
ababtp310
a((lp311
F0.0
aF2.5759999752044678
aF0.2890999972820282
aF0.0
aF0.6946363638747822
aF0.0
ag2
(g3
g4
Ntp312
Rp313
(lp314
g2
(g8
g4
Ntp315
Rp316
(lp317
F0.04431469059826254
aF0.0
aF0.0
abag2
(g8
g4
Ntp318
Rp319
(lp320
F0.0
aF0.0
aF0.0
ababtp321
a((lp322
F0.0
aF2.5759999752044678
aF0.2890999972820282
aF0.0
aF0.6946363638747822
aF0.0
ag2
(g3
g4
Ntp323
Rp324
(lp325
g2
(g8
g4
Ntp326
Rp327
(lp328
F0.03589489938459266
aF0.0
aF0.0
abag2
(g8
g4
Ntp329
Rp330
(lp331
F0.0
aF0.0
aF0.0
ababtp332
a((lp333
F0.0
aF2.5759999752044678
aF0.2890999972820282
aF0.0
aF0.6946363638747822
aF0.0
ag2
(g3
g4
Ntp334
Rp335
(lp336
g2
(g8
g4
Ntp337
Rp338
(lp339
F0.032305409446133394
aF0.0
aF0.0
abag2
(g8
g4
Ntp340
Rp341
(lp342
F0.0
aF0.0
aF0.0
ababtp343
a((lp344
F0.0
aF2.5759999752044678
aF0.2890999972820282
aF0.0
aF0.6946363638747822
aF0.0
ag2
(g3
g4
Ntp345
Rp346
(lp347
g2
(g8
g4
Ntp348
Rp349
(lp350
F0.029074868501520055
aF0.0
aF0.0
abag2
(g8
g4
Ntp351
Rp352
(lp353
F0.0
aF0.0
aF0.0
ababtp354
a((lp355
F0.0
aF2.5759999752044678
aF0.2890999972820282
aF0.0
aF0.6946363638747822
aF0.0
ag2
(g3
g4
Ntp356
Rp357
(lp358
g2
(g8
g4
Ntp359
Rp360
(lp361
F0.02616738165136805
aF0.0
aF0.0
abag2
(g8
g4
Ntp362
Rp363
(lp364
F0.0
aF0.0
aF0.0
ababtp365
a.