(lp0
((lp1
F2.292365381350884
aF3.1902666886647544
aF2.91762855393546
aF0.9609000047047933
aF0.0
aF3.4788182106885044
accopy_reg
_reconstructor
p2
(cgeometry_msgs.msg._Twist
Twist
p3
c__builtin__
object
p4
Ntp5
Rp6
(lp7
g2
(cgeometry_msgs.msg._Vector3
Vector3
p8
g4
Ntp9
Rp10
(lp11
F0.0
aF0.0
aF0.0
abag2
(g8
g4
Ntp12
Rp13
(lp14
F0.0
aF0.0
aF0.0
ababtp15
a((lp16
F2.29067924337567
aF3.1675000361033847
aF2.917399985449655
aF0.9614333351453145
aF0.0
aF3.514304358026256
ag2
(g3
g4
Ntp17
Rp18
(lp19
g2
(g8
g4
Ntp20
Rp21
(lp22
F0.5
aF0.0
aF0.0
abag2
(g8
g4
Ntp23
Rp24
(lp25
F0.0
aF0.0
aF0.0
ababtp26
a((lp27
F2.29067924337567
aF3.1675000361033847
aF2.917399985449655
aF0.9614333351453145
aF0.0
aF3.514304358026256
ag18
tp28
a((lp29
F2.292865377206069
aF3.1901999791463216
aF2.913514300755092
aF0.9633548413553545
aF0.0
aF3.4050476210457936
ag18
tp30
a((lp31
F2.261547183090786
aF3.1820666472117107
aF2.931558833402746
aF0.903275859766993
aF3.990999937057495
aF3.564576900922335
ag2
(g3
g4
Ntp32
Rp33
(lp34
g2
(g8
g4
Ntp35
Rp36
(lp37
F0.45
aF0.0
aF0.0
abag2
(g8
g4
Ntp38
Rp39
(lp40
F0.0
aF0.0
aF0.0
ababtp41
a((lp42
F2.124037749362442
aF3.067058801651001
aF3.077906236052513
aF1.0057083318630855
aF0.0
aF3.200039987564087
ag2
(g3
g4
Ntp43
Rp44
(lp45
g2
(g8
g4
Ntp46
Rp47
(lp48
F0.405
aF0.0
aF0.0
abag2
(g8
g4
Ntp49
Rp50
(lp51
F0.0
aF0.0
aF0.0
ababtp52
a((lp53
F2.0540188640918373
aF2.998333295186361
aF3.1015806351938555
aF1.0772000002861022
aF0.0
aF3.0950000190734865
ag44
tp54
a((lp55
F1.982245274309842
aF2.927789474788465
aF3.148322597626717
aF1.1355217436085576
aF0.0
aF3.153714256627219
ag2
(g3
g4
Ntp56
Rp57
(lp58
g2
(g8
g4
Ntp59
Rp60
(lp61
F0.36450000000000005
aF0.0
aF0.0
abag2
(g8
g4
Ntp62
Rp63
(lp64
F0.0
aF0.0
aF0.0
ababtp65
a((lp66
F1.9135660405428905
aF2.804349970817566
aF3.140034486507547
aF1.1909545497460798
aF0.0
aF3.1396666447321575
ag57
tp67
a((lp68
F1.838792452272379
aF2.7618499875068663
aF3.204518530103895
aF1.2693181742321362
aF0.0
aF2.895607122353145
ag2
(g3
g4
Ntp69
Rp70
(lp71
g2
(g8
g4
Ntp72
Rp73
(lp74
F0.32805000000000006
aF0.0
aF0.0
abag2
(g8
g4
Ntp75
Rp76
(lp77
F0.0
aF0.0
aF0.0
ababtp78
a((lp79
F1.8409230754925654
aF2.7618499875068663
aF3.204518530103895
aF1.2693181742321362
aF0.0
aF2.895607122353145
ag2
(g3
g4
Ntp80
Rp81
(lp82
g2
(g8
g4
Ntp83
Rp84
(lp85
F0.2952450000000001
aF0.0
aF0.0
abag2
(g8
g4
Ntp86
Rp87
(lp88
F0.0
aF0.0
aF0.0
ababtp89
a((lp90
F1.7740185194545322
aF2.6678636290810327
aF3.1225200080871582
aF1.3312727375464006
aF0.0
aF2.844689673390882
ag81
tp91
a((lp92
F1.7053773560613956
aF2.600782591363658
aF3.2080000241597495
aF1.3867619094394503
aF0.0
aF2.690413783336508
ag2
(g3
g4
Ntp93
Rp94
(lp95
g2
(g8
g4
Ntp96
Rp97
(lp98
F0.2657205000000001
aF0.0
aF0.0
abag2
(g8
g4
Ntp99
Rp100
(lp101
F0.0
aF0.0
aF0.0
ababtp102
a((lp103
F1.6393962243817888
aF2.5353749791781106
aF3.2364285928862437
aF1.4542499959468842
aF0.0
aF2.5743793125810295
ag2
(g3
g4
Ntp104
Rp105
(lp106
g2
(g8
g4
Ntp107
Rp108
(lp109
F0.23914845000000007
aF0.0
aF0.0
abag2
(g8
g4
Ntp110
Rp111
(lp112
F0.0
aF0.0
aF0.0
ababtp113
a((lp114
F1.5720566151277073
aF2.472439980506897
aF3.2441851827833386
aF1.5224736740714626
aF0.0
aF2.505033318201701
ag2
(g3
g4
Ntp115
Rp116
(lp117
g2
(g8
g4
Ntp118
Rp119
(lp120
F0.21523360500000008
aF0.0
aF0.0
abag2
(g8
g4
Ntp121
Rp122
(lp123
F0.0
aF0.0
aF0.0
ababtp124
a((lp125
F1.5083584830446064
aF2.4030769146405735
aF3.2862592626501015
aF1.5851052748529535
aF0.0
aF2.4920937456190586
ag116
tp126
a((lp127
F1.4497962903093409
aF2.3450000241950706
aF3.225615382194519
aF1.638368424616362
aF0.0
aF2.3910625092685223
ag2
(g3
g4
Ntp128
Rp129
(lp130
g2
(g8
g4
Ntp131
Rp132
(lp133
F0.19371024450000007
aF0.0
aF0.0
abag2
(g8
g4
Ntp134
Rp135
(lp136
F0.0
aF0.0
aF0.0
ababtp137
a((lp138
F1.3990555626374703
aF2.2645185170350253
aF3.295538443785447
aF1.6748888889948528
aF0.0
aF2.3469393903558906
ag2
(g3
g4
Ntp139
Rp140
(lp141
g2
(g8
g4
Ntp142
Rp143
(lp144
F0.17433922005000008
aF0.0
aF0.0
abag2
(g8
g4
Ntp145
Rp146
(lp147
F0.0
aF0.0
aF0.0
ababtp148
a((lp149
F1.3516037666572716
aF2.20379311051862
aF3.2723600006103517
aF1.7399444381395976
aF0.0
aF2.25333334460403
ag140
tp150
a((lp151
F1.3062307742925792
aF2.155178572450365
aF3.331999998826247
aF1.772764703806709
aF0.0
aF2.174212108958851
ag140
tp152
a((lp153
F1.2646226365611237
aF2.086107164621353
aF3.3041666746139526
aF1.8139411842121798
aF0.0
aF2.1958571672439575
ag2
(g3
g4
Ntp154
Rp155
(lp156
g2
(g8
g4
Ntp157
Rp158
(lp159
F0.15690529804500009
aF0.0
aF0.0
abag2
(g8
g4
Ntp160
Rp161
(lp162
F0.0
aF0.0
aF0.0
ababtp163
a((lp164
F1.2289434019124732
aF2.0404000163078306
aF3.38291305044423
aF1.8490588314392988
aF0.0
aF2.0839999984292423
ag155
tp165
a((lp166
F1.1916792482699987
aF1.9974482634971882
aF3.4211304084114404
aF1.8908235045040356
aF0.0
aF2.0133823717341706
ag2
(g3
g4
Ntp167
Rp168
(lp169
g2
(g8
g4
Ntp170
Rp171
(lp172
F0.14121476824050008
aF0.0
aF0.0
abag2
(g8
g4
Ntp173
Rp174
(lp175
F0.0
aF0.0
aF0.0
ababtp176
a((lp177
F1.1554528317361508
aF1.9563871045266428
aF3.4175908999009565
aF1.9258823324652279
aF0.0
aF2.027777781089147
ag168
tp178
a((lp179
F1.1224074120874759
aF1.8834374882280827
aF3.4585909084840254
aF1.9623529350056368
aF0.0
aF1.927714286531721
ag2
(g3
g4
Ntp180
Rp181
(lp182
g2
(g8
g4
Ntp183
Rp184
(lp185
F0.12709329141645007
aF0.0
aF0.0
abag2
(g8
g4
Ntp186
Rp187
(lp188
F0.0
aF0.0
aF0.0
ababtp189
a((lp190
F1.091722223493788
aF1.8807187639176846
aF3.4605714139484225
aF1.9847499951720238
aF0.0
aF1.907555576827791
ag181
tp191
a((lp192
F1.0295094319109648
aF1.8109697067376338
aF3.513285693668184
aF2.0646666924158734
aF0.0
aF1.7661999906812396
ag2
(g3
g4
Ntp193
Rp194
(lp195
g2
(g8
g4
Ntp196
Rp197
(lp198
F0.11438396227480506
aF0.0
aF0.0
abag2
(g8
g4
Ntp199
Rp200
(lp201
F0.0
aF0.0
aF0.0
ababtp202
a((lp203
F1.0295094319109648
aF1.8109697067376338
aF3.5347272482785312
aF2.0646666924158734
aF0.0
aF1.7661999906812396
ag194
tp204
a((lp205
F1.0043090907010166
aF1.7454705764265621
aF3.539772705598311
aF2.103562504053116
aF0.0
aF1.7568610972828336
ag2
(g3
g4
Ntp206
Rp207
(lp208
g2
(g8
g4
Ntp209
Rp210
(lp211
F0.10294556604732455
aF0.0
aF0.0
abag2
(g8
g4
Ntp212
Rp213
(lp214
F0.0
aF0.0
aF0.0
ababtp215
a((lp216
F0.9792363665320657
aF1.7327714238848004
aF3.5680999636650084
aF2.1296874657273293
aF0.0
aF1.7132777803474002
ag207
tp217
a((lp218
F0.9547636368057945
aF1.710942850794111
aF3.5709473584827625
aF2.1565625071525574
aF0.0
aF1.6715000106228723
ag2
(g3
g4
Ntp219
Rp220
(lp221
g2
(g8
g4
Ntp222
Rp223
(lp224
F0.0926510094425921
aF0.0
aF0.0
abag2
(g8
g4
Ntp225
Rp226
(lp227
F0.0
aF0.0
aF0.0
ababtp228
a((lp229
F0.9308909101919695
aF1.6793888906637828
aF3.589157882489656
aF2.2818235088797176
aF0.0
aF1.6292499999205272
ag220
tp230
a((lp231
F0.886245610421164
aF1.6209411761339974
aF3.6413333075387135
aF2.1894375011324883
aF0.0
aF1.551861113972134
ag2
(g3
g4
Ntp232
Rp233
(lp234
g2
(g8
g4
Ntp235
Rp236
(lp237
F0.08338590849833288
aF0.0
aF0.0
abag2
(g8
g4
Ntp238
Rp239
(lp240
F0.0
aF0.0
aF0.0
ababtp241
a((lp242
F0.8672500029206276
aF1.6043243214890763
aF3.6732380844297863
aF2.2292666753133137
aF0.0
aF1.516861115892728
ag233
tp243
a((lp244
F0.8479038442556674
aF1.5864444507492914
aF3.6425789280941614
aF2.392466688156128
aF0.0
aF1.4800555689467325
ag2
(g3
g4
Ntp245
Rp246
(lp247
g2
(g8
g4
Ntp248
Rp249
(lp250
F0.0750473176484996
aF0.0
aF0.0
abag2
(g8
g4
Ntp251
Rp252
(lp253
F0.0
aF0.0
aF0.0
ababtp254
a((lp255
F0.8288703715359723
aF1.5363783723599203
aF3.6222999811172487
aF2.3895333131154377
aF0.0
aF1.416285708972386
ag246
tp256
a((lp257
F0.8113148124129684
aF1.5011080938416559
aF3.6370999813079834
aF2.4014666716257733
aF0.0
aF1.4492162143861926
ag2
(g3
g4
Ntp258
Rp259
(lp260
g2
(g8
g4
Ntp261
Rp262
(lp263
F0.06754258588364964
aF0.0
aF0.0
abag2
(g8
g4
Ntp264
Rp265
(lp266
F0.0
aF0.0
aF0.0
ababtp267
a((lp268
F0.8113148124129684
aF1.5011080938416559
aF3.6370999813079834
aF2.4014666716257733
aF0.0
aF1.4492162143861926
ag259
tp269
a((lp270
F0.7806249995316777
aF1.4958648617203172
aF3.6968635970895942
aF2.3027142797197615
aF0.0
aF1.360972222354677
ag2
(g3
g4
Ntp271
Rp272
(lp273
g2
(g8
g4
Ntp274
Rp275
(lp276
F0.06078832729528468
aF0.0
aF0.0
abag2
(g8
g4
Ntp277
Rp278
(lp279
F0.0
aF0.0
aF0.0
ababtp280
a((lp281
F0.7666545434431596
aF1.5067352985634523
aF3.719681804830378
aF2.4623999913533527
aF0.0
aF1.3620540612452738
ag272
tp282
a((lp283
F0.7504545428536155
aF1.4351351357795097
aF3.6937894570200065
aF2.4268749952316284
aF0.0
aF1.3404054077895913
ag2
(g3
g4
Ntp284
Rp285
(lp286
g2
(g8
g4
Ntp287
Rp288
(lp289
F0.05470949456575622
aF0.0
aF0.0
abag2
(g8
g4
Ntp290
Rp291
(lp292
F0.0
aF0.0
aF0.0
ababtp293
a((lp294
F0.7378518548276689
aF1.410540540476103
aF3.7135000129540763
aF2.597333319981893
aF0.0
aF1.3172972959441107
ag285
tp295
a((lp296
F0.7386037763559593
aF1.410540540476103
aF3.6617272875525733
aF2.7018124908208847
aF0.0
aF1.3172972959441107
ag285
tp297
a((lp298
F0.7160363630814985
aF1.3640270313701115
aF3.6859473303744665
aF2.690294111476225
aF0.0
aF1.274945948574994
ag2
(g3
g4
Ntp299
Rp300
(lp301
g2
(g8
g4
Ntp302
Rp303
(lp304
F0.0492385451091806
aF0.0
aF0.0
abag2
(g8
g4
Ntp305
Rp306
(lp307
F0.0
aF0.0
aF0.0
ababtp308
a((lp309
F0.7034285739064217
aF1.3391621515557572
aF3.7111428124564037
aF2.590562492609024
aF0.0
aF1.2531080987002399
ag300
tp310
a((lp311
F0.6921886824211985
aF1.30710526516563
aF3.7206818515604194
aF2.6826470248839436
aF0.0
aF1.2330540499171696
ag2
(g3
g4
Ntp312
Rp313
(lp314
g2
(g8
g4
Ntp315
Rp316
(lp317
F0.04431469059826254
aF0.0
aF0.0
abag2
(g8
g4
Ntp318
Rp319
(lp320
F0.0
aF0.0
aF0.0
ababtp321
a((lp322
F0.6818113203318614
aF1.295216217234328
aF3.724869562231976
aF2.652133337656657
aF0.0
aF1.2173513544572365
ag313
tp323
a((lp324
F0.6713518533441756
aF1.283162170165294
aF3.7116817994551226
aF2.5220714466912404
aF0.0
aF1.1993783760715175
ag313
tp325
a((lp326
F0.661518516363921
aF1.2996052676125576
aF3.7399564825970195
aF2.7214285816465105
aF0.0
aF1.1817567493464496
ag2
(g3
g4
Ntp327
Rp328
(lp329
g2
(g8
g4
Ntp330
Rp331
(lp332
F0.039883221538436285
aF0.0
aF0.0
abag2
(g8
g4
Ntp333
Rp334
(lp335
F0.0
aF0.0
aF0.0
ababtp336
a((lp337
F0.6541666631345395
aF1.2650769307063177
aF3.7422380787985667
aF2.60115385055542
aF0.0
aF1.1640810885944881
ag328
tp338
a.(lp0
((lp1
F2.426134604674119
aF3.3422857352665494
aF2.773400000163487
aF0.8692068930329948
aF2.2109999656677246
aF3.632904711223784
accopy_reg
_reconstructor
p2
(cgeometry_msgs.msg._Twist
Twist
p3
c__builtin__
object
p4
Ntp5
Rp6
(lp7
g2
(cgeometry_msgs.msg._Vector3
Vector3
p8
g4
Ntp9
Rp10
(lp11
F0.0
aF0.0
aF0.0
abag2
(g8
g4
Ntp12
Rp13
(lp14
F0.0
aF0.0
aF0.0
ababtp15
a((lp16
F2.42533333213241
aF3.331642815044948
aF2.7748000076838903
aF0.8728965479752113
aF0.0
aF3.690500010143627
ag6
tp17
a((lp18
F2.429346125859481
aF3.3423571416309903
aF2.7743142809186665
aF0.8793103489382513
aF2.2130000591278076
aF3.6851818561553955
ag2
(g3
g4
Ntp19
Rp20
(lp21
g2
(g8
g4
Ntp22
Rp23
(lp24
F0.5
aF0.0
aF0.0
abag2
(g8
g4
Ntp25
Rp26
(lp27
F0.0
aF0.0
aF0.0
ababtp28
a((lp29
F2.426339621813792
aF3.3306428704942976
aF2.768666650309707
aF0.8360714252505984
aF3.3399999936421714
aF3.6563332875569663
ag2
(g3
g4
Ntp30
Rp31
(lp32
g2
(g8
g4
Ntp33
Rp34
(lp35
F0.45
aF0.0
aF0.0
abag2
(g8
g4
Ntp36
Rp37
(lp38
F0.0
aF0.0
aF0.0
ababtp39
a((lp40
F2.4043846222070546
aF3.318285720688956
aF2.7841388980547586
aF0.8424375019967556
aF3.937000036239624
aF3.584869550622028
ag31
tp41
a((lp42
F2.2701153801037717
aF3.2043333212534586
aF2.93885714667184
aF0.8760740690761142
aF0.0
aF3.4536956185879917
ag2
(g3
g4
Ntp43
Rp44
(lp45
g2
(g8
g4
Ntp46
Rp47
(lp48
F0.405
aF0.0
aF0.0
abag2
(g8
g4
Ntp49
Rp50
(lp51
F0.0
aF0.0
aF0.0
ababtp52
a((lp53
F2.2006415106215567
aF3.1531250029802322
aF2.984205898116617
aF1.0480357195649828
aF0.0
aF3.2637083331743875
ag2
(g3
g4
Ntp54
Rp55
(lp56
g2
(g8
g4
Ntp57
Rp58
(lp59
F0.32805000000000006
aF0.0
aF0.0
abag2
(g8
g4
Ntp60
Rp61
(lp62
F0.0
aF0.0
aF0.0
ababtp63
a((lp64
F2.057509442545333
aF2.9882222414016724
aF3.119249999523163
aF1.0719600009918213
aF0.0
aF3.1042800045013426
ag55
tp65
a((lp66
F1.989788456605031
aF2.9137222237057157
aF3.103310330160733
aF1.1292608665383381
aF0.0
aF3.0198461826031027
ag2
(g3
g4
Ntp67
Rp68
(lp69
g2
(g8
g4
Ntp70
Rp71
(lp72
F0.2952450000000001
aF0.0
aF0.0
abag2
(g8
g4
Ntp73
Rp74
(lp75
F0.0
aF0.0
aF0.0
ababtp76
a((lp77
F1.919433960374796
aF2.8245499968528747
aF3.159275844179351
aF1.1842727281830527
aF0.0
aF3.0719654971155625
ag2
(g3
g4
Ntp78
Rp79
(lp80
g2
(g8
g4
Ntp81
Rp82
(lp83
F0.2657205000000001
aF0.0
aF0.0
abag2
(g8
g4
Ntp84
Rp85
(lp86
F0.0
aF0.0
aF0.0
ababtp87
a((lp88
F1.7856923112502465
aF2.7016363577409224
aF3.155566652615865
aF1.3218181783502752
aF0.0
aF2.810275809518222
ag2
(g3
g4
Ntp89
Rp90
(lp91
g2
(g8
g4
Ntp92
Rp93
(lp94
F0.23914845000000007
aF0.0
aF0.0
abag2
(g8
g4
Ntp95
Rp96
(lp97
F0.0
aF0.0
aF0.0
ababtp98
a((lp99
F1.7211886779317316
aF2.6656818173148413
aF3.246999986966451
aF1.3697142828078497
aF0.0
aF2.7449666539827984
ag2
(g3
g4
Ntp100
Rp101
(lp102
g2
(g8
g4
Ntp103
Rp104
(lp105
F0.21523360500000008
aF0.0
aF0.0
abag2
(g8
g4
Ntp106
Rp107
(lp108
F0.0
aF0.0
aF0.0
ababtp109
a((lp110
F1.6073999946767634
aF2.509166652957598
aF3.241000005177089
aF1.4971999943256378
aF0.0
aF2.5527333418528237
ag2
(g3
g4
Ntp111
Rp112
(lp113
g2
(g8
g4
Ntp114
Rp115
(lp116
F0.19371024450000007
aF0.0
aF0.0
abag2
(g8
g4
Ntp117
Rp118
(lp119
F0.0
aF0.0
aF0.0
ababtp120
a((lp121
F1.5607924483857065
aF2.4694000005722048
aF3.2430370295489275
aF1.5353684111645347
aF0.0
aF2.5148709704799037
ag2
(g3
g4
Ntp122
Rp123
(lp124
g2
(g8
g4
Ntp125
Rp126
(lp127
F0.17433922005000008
aF0.0
aF0.0
abag2
(g8
g4
Ntp128
Rp129
(lp130
F0.0
aF0.0
aF0.0
ababtp131
a((lp132
F1.4666296221591808
aF2.3446923219240627
aF3.228960008621216
aF1.6238420887997276
aF0.0
aF2.449939388217348
ag2
(g3
g4
Ntp133
Rp134
(lp135
g2
(g8
g4
Ntp136
Rp137
(lp138
F0.15690529804500009
aF0.0
aF0.0
abag2
(g8
g4
Ntp139
Rp140
(lp141
F0.0
aF0.0
aF0.0
ababtp142
a((lp143
F1.4259444453098156
aF2.325518528620402
aF3.2368076672920814
aF1.6483888957235548
aF0.0
aF2.3923437371850014
ag2
(g3
g4
Ntp144
Rp145
(lp146
g2
(g8
g4
Ntp147
Rp148
(lp149
F0.14121476824050008
aF0.0
aF0.0
abag2
(g8
g4
Ntp150
Rp151
(lp152
F0.0
aF0.0
aF0.0
ababtp153
a((lp154
F1.3891886810086809
aF2.260296282944856
aF3.3010000122918024
aF1.686444448100196
aF0.0
aF2.2693749964237213
ag145
tp155
a((lp156
F1.353471704249112
aF2.220793099238955
aF3.2625600051879884
aF1.7336666650242276
aF0.0
aF2.247333338766387
ag145
tp157
a((lp158
F1.3214905689347465
aF2.189928569964
aF3.3131785648209706
aF1.76983333296246
aF0.0
aF2.2354117666973785
ag2
(g3
g4
Ntp159
Rp160
(lp161
g2
(g8
g4
Ntp162
Rp163
(lp164
F0.12709329141645007
aF0.0
aF0.0
abag2
(g8
g4
Ntp165
Rp166
(lp167
F0.0
aF0.0
aF0.0
ababtp168
a((lp169
F1.2901481434150979
aF2.1444074092087924
aF3.2982083360354104
aF1.787529419450199
aF0.0
aF2.214685712541853
ag160
tp170
a((lp171
F1.2599622730938893
aF2.1037666757901508
aF3.3489642994744435
aF1.8208235502243042
aF0.0
aF2.1224117524483623
ag160
tp172
a((lp173
F1.2301698135879804
aF2.0710689733768333
aF3.378269232236422
aF1.8500000028049244
aF0.0
aF2.0742352815235363
ag160
tp174
a((lp175
F1.2026296235896923
aF2.066433346271515
aF3.3798000144958498
aF1.878647067967583
aF0.0
aF2.0607999971934725
ag2
(g3
g4
Ntp176
Rp177
(lp178
g2
(g8
g4
Ntp179
Rp180
(lp181
F0.11438396227480506
aF0.0
aF0.0
abag2
(g8
g4
Ntp182
Rp183
(lp184
F0.0
aF0.0
aF0.0
ababtp185
a((lp186
F1.1755094280782736
aF1.9929354844554779
aF3.411173913789832
aF1.9060587953118717
aF0.0
aF2.050000011920929
ag177
tp187
a((lp188
F1.1476981190015685
aF1.95087097537133
aF3.41513635895469
aF1.9337647171581493
aF0.0
aF1.957742851121085
ag177
tp189
a((lp190
F1.12273585571433
aF1.8929999843239784
aF3.4078500390052797
aF1.9733999967575073
aF0.0
aF1.8795882393332088
ag177
tp191
a((lp192
F1.0966181798414751
aF1.862387099573689
aF3.4524285679771785
aF1.974125012755394
aF0.0
aF1.906277789009942
ag177
tp193
a((lp194
F1.070781818303195
aF1.8530312441289425
aF3.4786363514986904
aF2.0119999945163727
aF0.0
aF1.821800000326974
ag2
(g3
g4
Ntp195
Rp196
(lp197
g2
(g8
g4
Ntp198
Rp199
(lp200
F0.10294556604732455
aF0.0
aF0.0
abag2
(g8
g4
Ntp201
Rp202
(lp203
F0.0
aF0.0
aF0.0
ababtp204
a((lp205
F1.0473636410453102
aF1.7995757695400354
aF3.516590877012773
aF2.038250006735325
aF0.0
aF1.8184722198380365
ag196
tp206
a((lp207
F1.0485000047418807
aF1.7995757695400354
aF3.516590877012773
aF2.038250006735325
aF0.0
aF1.8184722198380365
ag196
tp208
a((lp209
F1.024370366776431
aF1.7906176482929903
aF3.5302272601561113
aF2.077062502503395
aF0.0
aF1.746685722896031
ag196
tp210
a((lp211
F1.0023090915246444
aF1.756818175315857
aF3.5431000113487245
aF2.1037499755620956
aF0.0
aF1.7439166671699948
ag2
(g3
g4
Ntp212
Rp213
(lp214
g2
(g8
g4
Ntp215
Rp216
(lp217
F0.0926510094425921
aF0.0
aF0.0
abag2
(g8
g4
Ntp218
Rp219
(lp220
F0.0
aF0.0
aF0.0
ababtp221
a((lp222
F0.9813392832875252
aF1.7066470559905558
aF3.556099998950958
aF2.110599986712138
aF0.0
aF1.672485705784389
ag213
tp223
a((lp224
F0.9589107153671128
aF1.7064285584858485
aF3.572045412930575
aF2.1378125101327896
aF0.0
aF1.664694454934862
ag213
tp225
a((lp226
F0.93878571582692
aF1.6699705790070927
aF3.5532105219991585
aF2.148437477648258
aF0.0
aF1.6120588113279903
ag2
(g3
g4
Ntp227
Rp228
(lp229
g2
(g8
g4
Ntp230
Rp231
(lp232
F0.08338590849833288
aF0.0
aF0.0
abag2
(g8
g4
Ntp233
Rp234
(lp235
F0.0
aF0.0
aF0.0
ababtp236
a((lp237
F0.9171481496757932
aF1.629657142502921
aF3.597000002861023
aF2.286000027376063
aF0.0
aF1.5613714320319039
ag228
tp238
a((lp239
F0.9001818158409812
aF1.6425714322498866
aF3.6170476164136613
aF2.2909999875461353
aF0.0
aF1.5606111056274838
ag228
tp240
a((lp241
F0.8795925897580607
aF1.5996111068460677
aF3.6039000034332274
aF2.299764696289511
aF0.0
aF1.5595675803519584
ag228
tp242
a((lp243
F0.8641454501585527
aF1.5688333345784082
aF3.6290526013625297
aF2.399214267730713
aF0.0
aF1.4989999963177576
ag2
(g3
g4
Ntp244
Rp245
(lp246
g2
(g8
g4
Ntp247
Rp248
(lp249
F0.0750473176484996
aF0.0
aF0.0
abag2
(g8
g4
Ntp250
Rp251
(lp252
F0.0
aF0.0
aF0.0
ababtp253
a((lp254
F0.8440185167171337
aF1.5401388969686296
aF3.631523779460362
aF2.375533358256022
aF0.0
aF1.4659166600969102
ag245
tp255
a((lp256
F0.8286296272719348
aF1.5067222118377686
aF3.6551904451279413
aF2.4052142586026872
aF0.0
aF1.4618918960158889
ag245
tp257
a((lp258
F0.8093773587694708
aF1.515243243526768
aF3.6235000133514403
aF2.409066677093506
aF0.0
aF1.429270270708445
ag245
tp259
a((lp260
F0.7927592562304603
aF1.4830540547499786
aF3.636799967288971
aF2.4220666726430258
aF0.0
aF1.4017297319463782
ag245
tp261
a((lp262
F0.7760181817141446
aF1.4746285711015974
aF3.674217400343522
aF2.4093124866485596
aF0.0
aF1.3727837817088977
ag2
(g3
g4
Ntp263
Rp264
(lp265
g2
(g8
g4
Ntp266
Rp267
(lp268
F0.06754258588364964
aF0.0
aF0.0
abag2
(g8
g4
Ntp269
Rp270
(lp271
F0.0
aF0.0
aF0.0
ababtp272
a((lp273
F0.7611698125893215
aF1.462868415995648
aF3.6697999835014343
aF2.5453125089406967
aF0.0
aF1.342216208174422
ag264
tp274
a((lp275
F0.7459433967212461
aF1.3928918935157157
aF3.696136322888461
aF2.5460624992847443
aF0.0
aF1.3167027041718766
ag264
tp276
a((lp277
F0.7292499977808732
aF1.411432436994604
aF3.71895238331386
aF2.56206251680851
aF0.0
aF1.2927026990297679
ag264
tp278
a((lp279
F0.716924527906022
aF1.3926666809452906
aF3.7012726935473355
aF2.6748823558582977
aF0.0
aF1.2681081069482338
ag2
(g3
g4
Ntp280
Rp281
(lp282
g2
(g8
g4
Ntp283
Rp284
(lp285
F0.06078832729528468
aF0.0
aF0.0
abag2
(g8
g4
Ntp286
Rp287
(lp288
F0.0
aF0.0
aF0.0
ababtp289
a((lp290
F0.716924527906022
aF1.3926666809452906
aF3.7012726935473355
aF2.6748823558582977
aF0.0
aF1.2681081069482338
ag281
tp291
a((lp292
F0.6889433961994244
aF1.339138882027732
aF3.7084499835968017
aF2.6287333488464357
aF0.0
aF1.2150810828080048
ag281
tp293
a.(lp0
((lp1
F2.3497884686176596
aF3.2448571068899974
aF2.796818176905314
aF0.8966333329677582
aF0.0
aF3.4931818030097266
accopy_reg
_reconstructor
p2
(cgeometry_msgs.msg._Twist
Twist
p3
c__builtin__
object
p4
Ntp5
Rp6
(lp7
g2
(cgeometry_msgs.msg._Vector3
Vector3
p8
g4
Ntp9
Rp10
(lp11
F0.5
aF0.0
aF0.0
abag2
(g8
g4
Ntp12
Rp13
(lp14
F0.0
aF0.0
aF0.0
ababtp15
a((lp16
F2.353423054401691
aF3.2721999804178874
aF2.795303034059929
aF0.9012258091280537
aF0.0
aF3.5602272748947144
ag6
tp17
a((lp18
F2.3491730781701894
aF3.2405000073569163
aF2.793757575930971
aF1.0037575779539165
aF0.0
aF3.49742857615153
ag6
tp19
a((lp20
F2.3103773638887226
aF3.2375714097704207
aF2.805242430080067
aF0.9424062520265579
aF0.0
aF3.510541637738546
ag2
(g3
g4
Ntp21
Rp22
(lp23
g2
(g8
g4
Ntp24
Rp25
(lp26
F0.45
aF0.0
aF0.0
abag2
(g8
g4
Ntp27
Rp28
(lp29
F0.0
aF0.0
aF0.0
ababtp30
a((lp31
F2.2397358417510986
aF3.1772666613260907
aF2.9365000023561367
aF0.9039259199742917
aF0.0
aF3.382400016784668
ag22
tp32
a((lp33
F2.170807673380925
aF3.118562489748001
aF2.9646969708529385
aF0.9684230799858387
aF0.0
aF3.2001249889532724
ag2
(g3
g4
Ntp34
Rp35
(lp36
g2
(g8
g4
Ntp37
Rp38
(lp39
F0.405
aF0.0
aF0.0
abag2
(g8
g4
Ntp40
Rp41
(lp42
F0.0
aF0.0
aF0.0
ababtp43
a((lp44
F2.099137264139512
aF3.059352958903593
aF3.067531280219555
aF1.137285711509841
aF0.0
aF3.217799997329712
ag2
(g3
g4
Ntp45
Rp46
(lp47
g2
(g8
g4
Ntp48
Rp49
(lp50
F0.36450000000000005
aF0.0
aF0.0
abag2
(g8
g4
Ntp51
Rp52
(lp53
F0.0
aF0.0
aF0.0
ababtp54
a((lp55
F2.028576910495758
aF2.948294120676377
aF3.1101034427511283
aF1.0889999891320865
aF0.0
aF3.0933845776778
ag46
tp56
a((lp57
F1.9621320760475014
aF2.8772777583864
aF3.161033336321513
aF1.1509999930858612
aF0.0
aF3.0520740968209727
ag2
(g3
g4
Ntp58
Rp59
(lp60
g2
(g8
g4
Ntp61
Rp62
(lp63
F0.32805000000000006
aF0.0
aF0.0
abag2
(g8
g4
Ntp64
Rp65
(lp66
F0.0
aF0.0
aF0.0
ababtp67
a((lp68
F1.8935192433687358
aF2.8144210765236304
aF3.1433000246683758
aF1.2054545391689648
aF0.0
aF3.082000001271566
ag59
tp69
a((lp70
F1.8248461668307965
aF2.720238129297892
aF3.198185161308006
aF1.2812173988508142
aF0.0
aF2.7535199737548828
ag2
(g3
g4
Ntp71
Rp72
(lp73
g2
(g8
g4
Ntp74
Rp75
(lp76
F0.2952450000000001
aF0.0
aF0.0
abag2
(g8
g4
Ntp77
Rp78
(lp79
F0.0
aF0.0
aF0.0
ababtp80
a((lp81
F1.7530576930596278
aF2.655499989336187
aF3.2212142859186446
aF1.3343181826851584
aF0.0
aF2.76196550500804
ag72
tp82
a((lp83
F1.6880185228806954
aF2.624727259982716
aF3.199071432862963
aF1.4145454601808027
aF0.0
aF2.6377241405947456
ag2
(g3
g4
Ntp84
Rp85
(lp86
g2
(g8
g4
Ntp87
Rp88
(lp89
F0.2657205000000001
aF0.0
aF0.0
abag2
(g8
g4
Ntp90
Rp91
(lp92
F0.0
aF0.0
aF0.0
ababtp93
a((lp94
F1.6218490600585938
aF2.5348750005165734
aF3.2285172528234023
aF1.469700002670288
aF0.0
aF2.557200002670288
ag2
(g3
g4
Ntp95
Rp96
(lp97
g2
(g8
g4
Ntp98
Rp99
(lp100
F0.23914845000000007
aF0.0
aF0.0
abag2
(g8
g4
Ntp101
Rp102
(lp103
F0.0
aF0.0
aF0.0
ababtp104
a((lp105
F1.5539607954960244
aF2.4346250096956887
aF3.230962965223524
aF1.5300000027606362
aF0.0
aF2.4943548556297057
ag2
(g3
g4
Ntp106
Rp107
(lp108
g2
(g8
g4
Ntp109
Rp110
(lp111
F0.21523360500000008
aF0.0
aF0.0
abag2
(g8
g4
Ntp112
Rp113
(lp114
F0.0
aF0.0
aF0.0
ababtp115
a((lp116
F1.4913396205542222
aF2.3634400033950804
aF3.2733461490044227
aF1.5946842055571706
aF0.0
aF2.4528387169684134
ag107
tp117
a((lp118
F1.4370185158870838
aF2.310000014305115
aF3.216000003814697
aF1.6503684081529315
aF0.0
aF2.3456249870359898
ag2
(g3
g4
Ntp119
Rp120
(lp121
g2
(g8
g4
Ntp122
Rp123
(lp124
F0.19371024450000007
aF0.0
aF0.0
abag2
(g8
g4
Ntp125
Rp126
(lp127
F0.0
aF0.0
aF0.0
ababtp128
a((lp129
F1.3876415086242389
aF2.242259281652945
aF3.253440008163452
aF1.6862222221162584
aF0.0
aF2.3040909153042417
ag120
tp130
a((lp131
F1.3400377372525774
aF2.2251071504184177
aF3.2915185027652316
aF1.73372220993042
aF0.0
aF2.211151513186368
ag2
(g3
g4
Ntp132
Rp133
(lp134
g2
(g8
g4
Ntp135
Rp136
(lp137
F0.17433922005000008
aF0.0
aF0.0
abag2
(g8
g4
Ntp138
Rp139
(lp140
F0.0
aF0.0
aF0.0
ababtp141
a((lp142
F1.2954444421662226
aF2.163259267807007
aF3.2812500298023224
aF1.7871666683091059
aF0.0
aF2.2177714381899154
ag133
tp143
a((lp144
F1.2527115367926085
aF2.08388888835907
aF3.310541649659475
aF1.8335555460717943
aF0.0
aF2.143057135173253
ag2
(g3
g4
Ntp145
Rp146
(lp147
g2
(g8
g4
Ntp148
Rp149
(lp150
F0.15690529804500009
aF0.0
aF0.0
abag2
(g8
g4
Ntp151
Rp152
(lp153
F0.0
aF0.0
aF0.0
ababtp154
a((lp155
F1.2116603783841402
aF2.031866669654846
aF3.3794400024414064
aF1.8694705893011654
aF0.0
aF2.069285709517343
ag146
tp156
a((lp157
F1.1724339521156166
aF1.9977419184100242
aF3.414409106427973
aF1.9171666635407343
aF0.0
aF1.9242424459168406
ag2
(g3
g4
Ntp158
Rp159
(lp160
g2
(g8
g4
Ntp161
Rp162
(lp163
F0.14121476824050008
aF0.0
aF0.0
abag2
(g8
g4
Ntp164
Rp165
(lp166
F0.0
aF0.0
aF0.0
ababtp167
a((lp168
F1.136962263089306
aF1.9265172440430214
aF3.4104545441540806
aF1.950999994026987
aF0.0
aF1.9346571479524886
ag2
(g3
g4
Ntp169
Rp170
(lp171
g2
(g8
g4
Ntp172
Rp173
(lp174
F0.12709329141645007
aF0.0
aF0.0
abag2
(g8
g4
Ntp175
Rp176
(lp177
F0.0
aF0.0
aF0.0
ababtp178
a((lp179
F1.102905662554615
aF1.8900645240660636
aF3.422449994087219
aF1.9904999997880723
aF0.0
aF1.8720285654067994
ag170
tp180
a((lp181
F1.070905662932486
aF1.857000004161488
aF3.475782591363658
aF2.017562508583069
aF0.0
aF1.828735302476322
ag2
(g3
g4
Ntp182
Rp183
(lp184
g2
(g8
g4
Ntp185
Rp186
(lp187
F0.11438396227480506
aF0.0
aF0.0
abag2
(g8
g4
Ntp188
Rp189
(lp190
F0.0
aF0.0
aF0.0
ababtp191
a((lp192
F1.0404814823910042
aF1.8079687543213367
aF3.4959523791358587
aF2.0303999900817873
aF0.0
aF1.8069166607326932
ag183
tp193
a((lp194
F1.0161250020776476
aF1.7899117680156933
aF3.520099973678589
aF2.068000001566751
aF0.0
aF1.7564722167121039
ag183
tp195
a((lp196
F0.9903818119655956
aF1.7344117585350485
aF3.5506666274297807
aF2.08546667098999
aF0.0
aF1.7134722173213959
ag2
(g3
g4
Ntp197
Rp198
(lp199
g2
(g8
g4
Ntp200
Rp201
(lp202
F0.10294556604732455
aF0.0
aF0.0
abag2
(g8
g4
Ntp203
Rp204
(lp205
F0.0
aF0.0
aF0.0
ababtp206
a((lp207
F0.9657818144018
aF1.7301428658621651
aF3.5639047736213323
aF2.2285624742507935
aF0.0
aF1.6681666705343459
ag198
tp208
a((lp209
F0.9386111089476833
aF1.7010833223660786
aF3.549899995326996
aF2.143357123647417
aF0.0
aF1.672805557648341
ag198
tp210
a((lp211
F0.9160754725618182
aF1.635628581047058
aF3.5525262857738293
aF2.3700588450712314
aF0.0
aF1.59502778450648
ag2
(g3
g4
Ntp212
Rp213
(lp214
g2
(g8
g4
Ntp215
Rp216
(lp217
F0.0926510094425921
aF0.0
aF0.0
abag2
(g8
g4
Ntp218
Rp219
(lp220
F0.0
aF0.0
aF0.0
ababtp221
a((lp222
F0.8930727297609503
aF1.631611122025384
aF3.5872631574931897
aF2.316588219474344
aF0.0
aF1.5862972897452277
ag213
tp223
a((lp224
F0.8734814800598003
aF1.5928055610921648
aF3.5785499930381777
aF2.326352960923139
aF0.0
aF1.5128888818952773
ag2
(g3
g4
Ntp225
Rp226
(lp227
g2
(g8
g4
Ntp228
Rp229
(lp230
F0.08338590849833288
aF0.0
aF0.0
abag2
(g8
g4
Ntp231
Rp232
(lp233
F0.0
aF0.0
aF0.0
ababtp234
a((lp235
F0.8533818179910834
aF1.5578571285520282
aF3.6083684093073796
aF2.3691249936819077
aF0.0
aF1.4510571377617971
ag226
tp236
a((lp237
F0.8338545452464711
aF1.5571081122836552
aF3.5686842140398527
aF2.4050000031789143
aF0.0
aF1.4143142870494299
ag226
tp238
a((lp239
F0.8133269193080755
aF1.5167837867865692
aF3.610949969291687
aF2.4054705956402946
aF0.0
aF1.4383243129060075
ag2
(g3
g4
Ntp240
Rp241
(lp242
g2
(g8
g4
Ntp243
Rp244
(lp245
F0.0750473176484996
aF0.0
aF0.0
abag2
(g8
g4
Ntp246
Rp247
(lp248
F0.0
aF0.0
aF0.0
ababtp249
a((lp250
F0.7960000038146973
aF1.494611115919219
aF3.6357499957084656
aF2.422882360570571
aF0.0
aF1.406756752246135
ag241
tp251
a((lp252
F0.7779814788588771
aF1.4775428635733467
aF3.6027368244371916
aF2.5496666696336536
aF0.0
aF1.3740540469014966
ag241
tp253
a((lp254
F0.7632909113710576
aF1.4330555531713698
aF3.6588571071624756
aF2.5705882100497974
aF0.0
aF1.3484864879298855
ag2
(g3
g4
Ntp255
Rp256
(lp257
g2
(g8
g4
Ntp258
Rp259
(lp260
F0.06754258588364964
aF0.0
aF0.0
abag2
(g8
g4
Ntp261
Rp262
(lp263
F0.0
aF0.0
aF0.0
ababtp264
a((lp265
F0.7453703736817395
aF1.4053055495023727
aF3.658399999141693
aF2.589176458470962
aF0.0
aF1.31840540589513
ag256
tp266
a((lp267
F0.715763638236306
aF1.3733783912014317
aF3.634263126473678
aF2.680055578549703
aF0.0
aF1.2623513485934283
ag2
(g3
g4
Ntp268
Rp269
(lp270
g2
(g8
g4
Ntp271
Rp272
(lp273
F0.06078832729528468
aF0.0
aF0.0
abag2
(g8
g4
Ntp274
Rp275
(lp276
F0.0
aF0.0
aF0.0
ababtp277
a((lp278
F0.7000555572686372
aF1.3481621677811082
aF3.619999951786465
aF2.568555566999647
aF0.0
aF1.2372972916912388
ag269
tp279
a((lp280
F0.6860754737314189
aF1.3529736870213558
aF3.64494736571061
aF2.6837221913867526
aF0.0
aF1.2095945928547833
ag2
(g3
g4
Ntp281
Rp282
(lp283
g2
(g8
g4
Ntp284
Rp285
(lp286
F0.05470949456575622
aF0.0
aF0.0
abag2
(g8
g4
Ntp287
Rp288
(lp289
F0.0
aF0.0
aF0.0
ababtp290
a((lp291
F0.6620943400095094
aF1.287722224990527
aF3.699590878053145
aF2.568642888750349
aF0.0
aF1.1654324354352177
ag2
(g3
g4
Ntp292
Rp293
(lp294
g2
(g8
g4
Ntp295
Rp296
(lp297
F0.0492385451091806
aF0.0
aF0.0
abag2
(g8
g4
Ntp298
Rp299
(lp300
F0.0
aF0.0
aF0.0
ababtp301
a((lp302
F0.6497592583850578
aF1.2355000047307265
aF3.68014281136649
aF2.601307667218722
aF0.0
aF1.1439729703439248
ag293
tp303
a((lp304
F0.6374259226851993
aF1.2127368356052197
aF3.7304761750357494
aF2.712066650390625
aF0.0
aF1.102750000026491
ag2
(g3
g4
Ntp305
Rp306
(lp307
g2
(g8
g4
Ntp308
Rp309
(lp310
F0.04431469059826254
aF0.0
aF0.0
abag2
(g8
g4
Ntp311
Rp312
(lp313
F0.0
aF0.0
aF0.0
ababtp314
a((lp315
F0.627236364104531
aF1.262049999833107
aF3.7477619307381764
aF2.6050714424678256
aF0.0
aF1.0634857211794173
ag2
(g3
g4
Ntp316
Rp317
(lp318
g2
(g8
g4
Ntp319
Rp320
(lp321
F0.039883221538436285
aF0.0
aF0.0
abag2
(g8
g4
Ntp322
Rp323
(lp324
F0.0
aF0.0
aF0.0
ababtp325
a((lp326
F0.6059622607141171
aF1.1853076907304616
aF3.695899987220764
aF2.624999965940203
aF0.0
aF1.07240540594668
ag317
tp327
a((lp328
F0.5884905659927512
aF1.176999993622303
aF3.7248571600232805
aF2.6455000128064836
aF0.0
aF1.039378378842328
ag2
(g3
g4
Ntp329
Rp330
(lp331
g2
(g8
g4
Ntp332
Rp333
(lp334
F0.03589489938459266
aF0.0
aF0.0
abag2
(g8
g4
Ntp335
Rp336
(lp337
F0.0
aF0.0
aF0.0
ababtp338
a.(lp0
((lp1
F2.3332075622846498
aF3.1543333331743875
aF2.767878785277858
aF0.8132758633843784
aF0.0
aF3.5651817972009834
accopy_reg
_reconstructor
p2
(cgeometry_msgs.msg._Twist
Twist
p3
c__builtin__
object
p4
Ntp5
Rp6
(lp7
g2
(cgeometry_msgs.msg._Vector3
Vector3
p8
g4
Ntp9
Rp10
(lp11
F0.0
aF0.0
aF0.0
abag2
(g8
g4
Ntp12
Rp13
(lp14
F0.0
aF0.0
aF0.0
ababtp15
a((lp16
F2.332019614238365
aF3.43011114332411
aF2.796030311873465
aF0.8196666615980642
aF3.9700000286102295
aF3.5250833133856454
ag2
(g3
g4
Ntp17
Rp18
(lp19
g2
(g8
g4
Ntp20
Rp21
(lp22
F0.5
aF0.0
aF0.0
abag2
(g8
g4
Ntp23
Rp24
(lp25
F0.0
aF0.0
aF0.0
ababtp26
a((lp27
F2.3246999883651736
aF3.415999968846639
aF2.7975151538848877
aF0.9137036954915082
aF3.9760000705718994
aF3.5603478162185005
ag18
tp28
a((lp29
F2.3310769154475284
aF3.4264443980322943
aF2.7808709990593696
aF0.8205999950567882
aF3.944999933242798
aF3.554347815720931
ag18
tp30
a((lp31
F2.2888301768392885
aF3.1457500060399375
aF2.902749995390574
aF0.9590344819529303
aF0.0
aF3.3230869562729546
ag2
(g3
g4
Ntp32
Rp33
(lp34
g2
(g8
g4
Ntp35
Rp36
(lp37
F0.45
aF0.0
aF0.0
abag2
(g8
g4
Ntp38
Rp39
(lp40
F0.0
aF0.0
aF0.0
ababtp41
a((lp42
F2.222076924947592
aF3.1500714336122786
aF2.898424264156457
aF1.0252068988208114
aF0.0
aF3.3348000049591064
ag33
tp43
a((lp44
F2.1438199996948244
aF3.2203333377838135
aF2.9751515316240713
aF0.9857692282933456
aF0.0
aF3.154958337545395
ag2
(g3
g4
Ntp45
Rp46
(lp47
g2
(g8
g4
Ntp48
Rp49
(lp50
F0.405
aF0.0
aF0.0
abag2
(g8
g4
Ntp51
Rp52
(lp53
F0.0
aF0.0
aF0.0
ababtp54
a((lp55
F2.103245289820545
aF3.115071415901184
aF3.010933295885722
aF1.0956538434212024
aF0.0
aF3.179079990386963
ag46
tp56
a((lp57
F2.012377365580145
aF3.140538454055786
aF3.092709687448317
aF1.1139200019836426
aF0.0
aF3.0485599994659425
ag2
(g3
g4
Ntp58
Rp59
(lp60
g2
(g8
g4
Ntp61
Rp62
(lp63
F0.36450000000000005
aF0.0
aF0.0
abag2
(g8
g4
Ntp64
Rp65
(lp66
F0.0
aF0.0
aF0.0
ababtp67
a((lp68
F1.941903836452044
aF2.857000000336591
aF3.14941934616335
aF1.1485909169370478
aF0.0
aF2.99981481940658
ag59
tp69
a((lp70
F1.8771153825979967
aF2.7663157990104272
aF3.177370380472254
aF1.2313043397405874
aF0.0
aF2.9030356918062483
ag2
(g3
g4
Ntp71
Rp72
(lp73
g2
(g8
g4
Ntp74
Rp75
(lp76
F0.32805000000000006
aF0.0
aF0.0
abag2
(g8
g4
Ntp77
Rp78
(lp79
F0.0
aF0.0
aF0.0
ababtp80
a((lp81
F1.8062941093070835
aF2.802277776930067
aF3.1722142781530107
aF1.2965652165205583
aF0.0
aF2.8032143115997314
ag72
tp82
a((lp83
F1.7392037069356
aF2.6369545459747314
aF3.1641599845886232
aF1.350045453418385
aF0.0
aF2.7183103438081413
ag2
(g3
g4
Ntp84
Rp85
(lp86
g2
(g8
g4
Ntp87
Rp88
(lp89
F0.2952450000000001
aF0.0
aF0.0
abag2
(g8
g4
Ntp90
Rp91
(lp92
F0.0
aF0.0
aF0.0
ababtp93
a((lp94
F1.6735577010191405
aF2.6072727116671475
aF3.1918000030517577
aF1.4348999977111816
aF0.0
aF2.6472333470980325
ag2
(g3
g4
Ntp95
Rp96
(lp97
g2
(g8
g4
Ntp98
Rp99
(lp100
F0.2657205000000001
aF0.0
aF0.0
abag2
(g8
g4
Ntp101
Rp102
(lp103
F0.0
aF0.0
aF0.0
ababtp104
a((lp105
F1.6060961622458239
aF2.5182500183582306
aF3.165259255303277
aF1.484450000524521
aF0.0
aF2.5756451391404673
ag96
tp106
a((lp107
F1.536843133907692
aF2.4472000122070314
aF3.1846000003814696
aF1.5500999987125397
aF0.0
aF2.481733334064484
ag2
(g3
g4
Ntp108
Rp109
(lp110
g2
(g8
g4
Ntp111
Rp112
(lp113
F0.23914845000000007
aF0.0
aF0.0
abag2
(g8
g4
Ntp114
Rp115
(lp116
F0.0
aF0.0
aF0.0
ababtp117
a((lp118
F1.4751320874915932
aF2.3787307739257812
aF3.2437407352306225
aF1.6095789419977289
aF0.0
aF2.3756333390871682
ag109
tp119
a((lp120
F1.4193703686749493
aF2.2927600049972536
aF3.2189230827184825
aF1.6687894683135183
aF0.0
aF2.349181814627214
ag109
tp121
a((lp122
F1.3650377314045745
aF2.2378148061257823
aF3.227639970779419
aF1.7069444457689922
aF0.0
aF2.304147061179666
ag2
(g3
g4
Ntp123
Rp124
(lp125
g2
(g8
g4
Ntp126
Rp127
(lp128
F0.21523360500000008
aF0.0
aF0.0
abag2
(g8
g4
Ntp129
Rp130
(lp131
F0.0
aF0.0
aF0.0
ababtp132
a((lp133
F1.3122407440786008
aF2.1998518528761686
aF3.3022962941063776
aF1.7601666450500488
aF0.0
aF2.1983529329299927
ag124
tp134
a((lp135
F1.2601886830239926
aF2.140965519280269
aF3.2691739123800527
aF1.8127222259839375
aF0.0
aF2.146628570556641
ag2
(g3
g4
Ntp136
Rp137
(lp138
g2
(g8
g4
Ntp139
Rp140
(lp141
F0.19371024450000007
aF0.0
aF0.0
abag2
(g8
g4
Ntp142
Rp143
(lp144
F0.0
aF0.0
aF0.0
ababtp145
a((lp146
F1.2129056543674108
aF2.0336333235104878
aF3.361959981918335
aF1.8751110831896465
aF0.0
aF2.0253529373337242
ag137
tp147
a((lp148
F1.167320764289712
aF1.9544666528701782
aF3.3903333118983676
aF1.9285294448628145
aF0.0
aF1.9810857125691006
ag2
(g3
g4
Ntp149
Rp150
(lp151
g2
(g8
g4
Ntp152
Rp153
(lp154
F0.17433922005000008
aF0.0
aF0.0
abag2
(g8
g4
Ntp155
Rp156
(lp157
F0.0
aF0.0
aF0.0
ababtp158
a((lp159
F1.1241111026869879
aF1.9265806482684227
aF3.423521726027779
aF1.9742352962493896
aF0.0
aF1.9443888896041446
ag150
tp160
a((lp161
F1.1241111026869879
aF1.9345483895271056
aF3.423521726027779
aF1.9742352962493896
aF0.0
aF1.9443888896041446
ag2
(g3
g4
Ntp162
Rp163
(lp164
g2
(g8
g4
Ntp165
Rp166
(lp167
F0.15690529804500009
aF0.0
aF0.0
abag2
(g8
g4
Ntp168
Rp169
(lp170
F0.0
aF0.0
aF0.0
ababtp171
a((lp172
F1.0861090876839377
aF1.850218739360571
aF3.456400012969971
aF1.9870555798212688
aF0.0
aF1.829942866734096
ag2
(g3
g4
Ntp173
Rp174
(lp175
g2
(g8
g4
Ntp176
Rp177
(lp178
F0.14121476824050008
aF0.0
aF0.0
abag2
(g8
g4
Ntp179
Rp180
(lp181
F0.0
aF0.0
aF0.0
ababtp182
a((lp183
F1.046363639831543
aF1.821121223045118
aF3.4680999755859374
aF2.0394375026226044
aF0.0
aF1.802805546257231
ag174
tp184
a((lp185
F1.0121481473799105
aF1.7842941214056576
aF3.5183636275204746
aF2.063799993197123
aF0.0
aF1.7413333356380463
ag174
tp186
a((lp187
F0.977490910616788
aF1.727176473421209
aF3.5500476360321045
aF2.0956000010172526
aF0.0
aF1.6538285664149692
ag2
(g3
g4
Ntp188
Rp189
(lp190
g2
(g8
g4
Ntp191
Rp192
(lp193
F0.12709329141645007
aF0.0
aF0.0
abag2
(g8
g4
Ntp194
Rp195
(lp196
F0.0
aF0.0
aF0.0
ababtp197
a((lp198
F0.9478363633155823
aF1.7319166560967763
aF3.5742499828338623
aF2.148062527179718
aF0.0
aF1.6675405373444427
ag2
(g3
g4
Ntp199
Rp200
(lp201
g2
(g8
g4
Ntp202
Rp203
(lp204
F0.11438396227480506
aF0.0
aF0.0
abag2
(g8
g4
Ntp205
Rp206
(lp207
F0.0
aF0.0
aF0.0
ababtp208
a((lp209
F0.9168000015345487
aF1.7190277775128682
aF3.5100587957045613
aF2.1670588184805477
aF0.0
aF1.5789722204208374
ag200
tp210
a((lp211
F0.8900740742683411
aF1.645657137462071
aF3.565149986743927
aF2.190000015146592
aF0.0
aF1.5342499779330359
ag2
(g3
g4
Ntp212
Rp213
(lp214
g2
(g8
g4
Ntp215
Rp216
(lp217
F0.10294556604732455
aF0.0
aF0.0
abag2
(g8
g4
Ntp218
Rp219
(lp220
F0.0
aF0.0
aF0.0
ababtp221
a((lp222
F0.9236415129787517
aF1.5913888845178816
aF3.573105259945518
aF2.2252000013987225
aF0.0
aF1.4883888843986723
ag213
tp223
a((lp224
F0.8415660419554081
aF1.561828567300524
aF3.5908947492900647
aF2.3775882300208595
aF0.0
aF1.473405403059882
ag2
(g3
g4
Ntp225
Rp226
(lp227
g2
(g8
g4
Ntp228
Rp229
(lp230
F0.0926510094425921
aF0.0
aF0.0
abag2
(g8
g4
Ntp231
Rp232
(lp233
F0.0
aF0.0
aF0.0
ababtp234
a((lp235
F0.8188867951339146
aF1.546675682067871
aF3.6375499606132506
aF2.395199998219808
aF0.0
aF1.404222211903996
ag2
(g3
g4
Ntp236
Rp237
(lp238
g2
(g8
g4
Ntp239
Rp240
(lp241
F0.08338590849833288
aF0.0
aF0.0
abag2
(g8
g4
Ntp242
Rp243
(lp244
F0.0
aF0.0
aF0.0
ababtp245
a((lp246
F0.7969056615289652
aF1.5084054147874988
aF3.598549997806549
aF2.421500012278557
aF0.0
aF1.3400285703795296
ag237
tp247
a((lp248
F0.7776727275414901
aF1.4679729809632172
aF3.64347823806431
aF2.4427500218153
aF0.0
aF1.3064285704067775
ag2
(g3
g4
Ntp249
Rp250
(lp251
g2
(g8
g4
Ntp252
Rp253
(lp254
F0.0750473176484996
aF0.0
aF0.0
abag2
(g8
g4
Ntp255
Rp256
(lp257
F0.0
aF0.0
aF0.0
ababtp258
a((lp259
F0.7589074042108324
aF1.4394444475571315
aF3.6137368051629317
aF2.534611119164361
aF0.0
aF1.327918930633648
ag250
tp260
a((lp261
F0.740924524811079
aF1.4079166567987866
aF3.679142872492472
aF2.5437777704662747
aF0.0
aF1.2955675672840428
ag2
(g3
g4
Ntp262
Rp263
(lp264
g2
(g8
g4
Ntp265
Rp266
(lp267
F0.06754258588364964
aF0.0
aF0.0
abag2
(g8
g4
Ntp268
Rp269
(lp270
F0.0
aF0.0
aF0.0
ababtp271
a((lp272
F0.7259814827530472
aF1.4082352904712452
aF3.6819166441758475
aF2.559888892703586
aF0.0
aF1.2430277814467747
ag2
(g3
g4
Ntp273
Rp274
(lp275
g2
(g8
g4
Ntp276
Rp277
(lp278
F0.06078832729528468
aF0.0
aF0.0
abag2
(g8
g4
Ntp279
Rp280
(lp281
F0.0
aF0.0
aF0.0
ababtp282
a((lp283
F0.7078653837625797
aF1.4463030298550923
aF3.6536818092519585
aF2.624066646893819
aF0.0
aF1.2158055586947336
ag274
tp284
a((lp285
F0.6933703709531713
aF1.3239999924387251
aF3.6692105092500387
aF2.579411773120656
aF0.0
aF1.1661428553717477
ag2
(g3
g4
Ntp286
Rp287
(lp288
g2
(g8
g4
Ntp289
Rp290
(lp291
F0.05470949456575622
aF0.0
aF0.0
abag2
(g8
g4
Ntp292
Rp293
(lp294
F0.0
aF0.0
aF0.0
ababtp295
a((lp296
F0.6809056581191297
aF1.318236851378491
aF3.7083809148697626
aF2.5543571540287564
aF0.0
aF1.1893243225845131
ag287
tp297
a((lp298
F0.6699074120433243
aF1.3075135205243085
aF3.7035237721034457
aF2.419642840112959
aF0.0
aF1.16848648883201
ag2
(g3
g4
Ntp299
Rp300
(lp301
g2
(g8
g4
Ntp302
Rp303
(lp304
F0.0492385451091806
aF0.0
aF0.0
abag2
(g8
g4
Ntp305
Rp306
(lp307
F0.0
aF0.0
aF0.0
ababtp308
a((lp309
F0.6574545470151034
aF1.288055557343695
aF3.6834761869339716
aF2.431714279311044
aF0.0
aF1.1478918887473442
ag300
tp310
a((lp311
F0.643907411230935
aF1.257594598306192
aF3.731652187264484
aF2.5977856942585538
aF0.0
aF1.0860571367400034
ag2
(g3
g4
Ntp312
Rp313
(lp314
g2
(g8
g4
Ntp315
Rp316
(lp317
F0.04431469059826254
aF0.0
aF0.0
abag2
(g8
g4
Ntp318
Rp319
(lp320
F0.0
aF0.0
aF0.0
ababtp321
a((lp322
F0.634370372251228
aF1.2239736898949272
aF3.72247618720645
aF2.7216000239054363
aF0.0
aF1.1075945963730682
ag313
tp323
a((lp324
F0.6241153856882682
aF1.2063684290961216
aF3.728190444764637
aF2.730999978383382
aF0.0
aF1.0910810779880833
ag2
(g3
g4
Ntp325
Rp326
(lp327
g2
(g8
g4
Ntp328
Rp329
(lp330
F0.039883221538436285
aF0.0
aF0.0
abag2
(g8
g4
Ntp331
Rp332
(lp333
F0.0
aF0.0
aF0.0
ababtp334
a((lp335
F0.6151923055832202
aF1.1894210561325675
aF3.7380000296093168
aF2.6087500154972076
aF0.0
aF1.0751081076828208
ag2
(g3
g4
Ntp336
Rp337
(lp338
g2
(g8
g4
Ntp339
Rp340
(lp341
F0.03589489938459266
aF0.0
aF0.0
abag2
(g8
g4
Ntp342
Rp343
(lp344
F0.0
aF0.0
aF0.0
ababtp345
a((lp346
F0.6046415050074739
aF1.197333323649871
aF3.732450044155121
aF2.609933312733968
aF0.0
aF1.0017058779211605
ag337
tp347
a.(lp0
((lp1
F2.404673072007986
aF3.3308461629427395
aF2.7595142977578297
aF0.8919000009695689
aF2.243000030517578
aF3.5227999806404116
accopy_reg
_reconstructor
p2
(cgeometry_msgs.msg._Twist
Twist
p3
c__builtin__
object
p4
Ntp5
Rp6
(lp7
g2
(cgeometry_msgs.msg._Vector3
Vector3
p8
g4
Ntp9
Rp10
(lp11
F0.0
aF0.0
aF0.0
abag2
(g8
g4
Ntp12
Rp13
(lp14
F0.0
aF0.0
aF0.0
ababtp15
a((lp16
F2.4047692234699545
aF3.236999988555908
aF2.7674411605386173
aF0.8777812514454126
aF2.2339999675750732
aF3.591285716919672
ag2
(g3
g4
Ntp17
Rp18
(lp19
g2
(g8
g4
Ntp20
Rp21
(lp22
F0.5
aF0.0
aF0.0
abag2
(g8
g4
Ntp23
Rp24
(lp25
F0.0
aF0.0
aF0.0
ababtp26
a((lp27
F2.401773583214238
aF3.3097857236862183
aF2.7467646879308365
aF0.8799696943976663
aF2.234999895095825
aF3.5550454421476885
ag18
tp28
a((lp29
F2.393811324857316
aF3.239833335081736
aF2.760342870439802
aF0.8387419312231003
aF3.362333377202352
aF3.471095221383231
ag2
(g3
g4
Ntp30
Rp31
(lp32
g2
(g8
g4
Ntp33
Rp34
(lp35
F0.45
aF0.0
aF0.0
abag2
(g8
g4
Ntp36
Rp37
(lp38
F0.0
aF0.0
aF0.0
ababtp39
a((lp40
F2.3480000037413378
aF3.2911428724016463
aF2.760454546321522
aF1.0250666578610739
aF3.9880000352859497
aF3.43714283761524
ag31
tp41
a((lp42
F2.27032000541687
aF3.211733341217041
aF2.9056764630710377
aF0.9693999886512756
aF0.0
aF3.356590888716958
ag2
(g3
g4
Ntp43
Rp44
(lp45
g2
(g8
g4
Ntp46
Rp47
(lp48
F0.405
aF0.0
aF0.0
abag2
(g8
g4
Ntp49
Rp50
(lp51
F0.0
aF0.0
aF0.0
ababtp52
a((lp53
F2.2036603711686045
aF3.120133320490519
aF2.947735302588519
aF0.9278076978830191
aF0.0
aF3.2637500067551932
ag44
tp54
a((lp55
F2.1362884571919074
aF3.0637500286102295
aF3.021542876107352
aF0.9977777776894746
aF0.0
aF3.2671538407985983
ag2
(g3
g4
Ntp56
Rp57
(lp58
g2
(g8
g4
Ntp59
Rp60
(lp61
F0.36450000000000005
aF0.0
aF0.0
abag2
(g8
g4
Ntp62
Rp63
(lp64
F0.0
aF0.0
aF0.0
ababtp65
a((lp66
F2.0655961678578305
aF2.9922940871294808
aF3.098363645149
aF1.0567599987983705
aF0.0
aF3.0501249929269156
ag57
tp67
a((lp68
F1.9961132081049793
aF2.92549999554952
aF3.084312506020069
aF1.1092916627724965
aF0.0
aF3.0296153930517344
ag2
(g3
g4
Ntp69
Rp70
(lp71
g2
(g8
g4
Ntp72
Rp73
(lp74
F0.32805000000000006
aF0.0
aF0.0
abag2
(g8
g4
Ntp75
Rp76
(lp77
F0.0
aF0.0
aF0.0
ababtp78
a((lp79
F1.9488148203602544
aF2.861315815072311
aF3.1038148314864547
aF1.1660454598340122
aF0.0
aF2.9149230810312123
ag2
(g3
g4
Ntp80
Rp81
(lp82
g2
(g8
g4
Ntp83
Rp84
(lp85
F0.2952450000000001
aF0.0
aF0.0
abag2
(g8
g4
Ntp86
Rp87
(lp88
F0.0
aF0.0
aF0.0
ababtp89
a((lp90
F1.8592075536835868
aF2.77066665604001
aF3.0303793035704514
aF1.2271818301894448
aF0.0
aF2.894821413925716
ag2
(g3
g4
Ntp91
Rp92
(lp93
g2
(g8
g4
Ntp94
Rp95
(lp96
F0.2657205000000001
aF0.0
aF0.0
abag2
(g8
g4
Ntp97
Rp98
(lp99
F0.0
aF0.0
aF0.0
ababtp100
a((lp101
F1.7911538550486932
aF2.697727257555181
aF3.1419629609143294
aF1.298782607783442
aF0.0
aF2.7862500037465776
ag92
tp102
a((lp103
F1.723923080242597
aF2.598636345429854
aF3.171821423939296
aF1.3760000104489534
aF0.0
aF2.7062758741707635
ag2
(g3
g4
Ntp104
Rp105
(lp106
g2
(g8
g4
Ntp107
Rp108
(lp109
F0.23914845000000007
aF0.0
aF0.0
abag2
(g8
g4
Ntp110
Rp111
(lp112
F0.0
aF0.0
aF0.0
ababtp113
a((lp114
F1.6612307727336884
aF2.546260838923247
aF3.1825925950650817
aF1.4235454689372669
aF0.0
aF2.6052413808888404
ag105
tp115
a((lp116
F1.6043333278761969
aF2.4922500252723694
aF3.2035999965667723
aF1.486600011587143
aF0.0
aF2.59006453329517
ag2
(g3
g4
Ntp117
Rp118
(lp119
g2
(g8
g4
Ntp120
Rp121
(lp122
F0.21523360500000008
aF0.0
aF0.0
abag2
(g8
g4
Ntp123
Rp124
(lp125
F0.0
aF0.0
aF0.0
ababtp126
a((lp127
F1.5502075474217254
aF2.443360004425049
aF3.171461536334111
aF1.540149998664856
aF0.0
aF2.5533749870955944
ag2
(g3
g4
Ntp128
Rp129
(lp130
g2
(g8
g4
Ntp131
Rp132
(lp133
F0.19371024450000007
aF0.0
aF0.0
abag2
(g8
g4
Ntp134
Rp135
(lp136
F0.0
aF0.0
aF0.0
ababtp137
a((lp138
F1.4945818294178357
aF2.3537916441758475
aF3.1896399879455566
aF1.591549998521805
aF0.0
aF2.4178709830007246
ag129
tp139
a((lp140
F1.4477036992708843
aF2.2893333435058594
aF3.2332962972146495
aF1.6253684257206165
aF0.0
aF2.421272736607176
ag2
(g3
g4
Ntp141
Rp142
(lp143
g2
(g8
g4
Ntp144
Rp145
(lp146
F0.17433922005000008
aF0.0
aF0.0
abag2
(g8
g4
Ntp147
Rp148
(lp149
F0.0
aF0.0
aF0.0
ababtp150
a((lp151
F1.4031666738015633
aF2.276259254526209
aF3.2637692231398363
aF1.6667368412017822
aF0.0
aF2.340878775625518
ag142
tp152
a((lp153
F1.3616981123978238
aF2.21222221409833
aF3.2377199840545656
aF1.7238421063674123
aF0.0
aF2.3077058686929592
ag142
tp154
a((lp155
F1.3184902013516893
aF2.1672068957624764
aF3.2519166668256125
aF1.7499444484710693
aF0.0
aF2.1952121221657954
ag2
(g3
g4
Ntp156
Rp157
(lp158
g2
(g8
g4
Ntp159
Rp160
(lp161
F0.15690529804500009
aF0.0
aF0.0
abag2
(g8
g4
Ntp162
Rp163
(lp164
F0.0
aF0.0
aF0.0
ababtp165
a((lp166
F1.2827358515757434
aF2.179159998893738
aF3.2634800052642823
aF1.7997368385917263
aF0.0
aF2.1735294040511635
ag157
tp167
a((lp168
F1.2460370284539681
aF2.0402758614770296
aF3.337181806564331
aF1.8420555525355868
aF0.0
aF2.1399142912455966
ag2
(g3
g4
Ntp169
Rp170
(lp171
g2
(g8
g4
Ntp172
Rp173
(lp174
F0.14121476824050008
aF0.0
aF0.0
abag2
(g8
g4
Ntp175
Rp176
(lp177
F0.0
aF0.0
aF0.0
ababtp178
a((lp179
F1.212113209490506
aF2.0454482538946746
aF3.366370360056559
aF1.8804999987284343
aF0.0
aF2.0808285679136005
ag170
tp180
a((lp181
F1.178773580857043
aF1.996354845262343
aF3.3875454555858266
aF1.9133889145321317
aF0.0
aF2.0205999987465995
ag170
tp182
a((lp183
F1.1472222164825157
aF1.9780000038444996
aF3.38945454900915
aF1.947058831944185
aF0.0
aF1.9627714225224087
ag2
(g3
g4
Ntp184
Rp185
(lp186
g2
(g8
g4
Ntp187
Rp188
(lp189
F0.12709329141645007
aF0.0
aF0.0
abag2
(g8
g4
Ntp190
Rp191
(lp192
F0.0
aF0.0
aF0.0
ababtp193
a((lp194
F1.1146666606267293
aF1.9571562483906746
aF3.4073499917984007
aF1.967124991118908
aF0.0
aF1.8691176246194279
ag185
tp195
a((lp196
F1.087981480139273
aF1.8377500101923943
aF3.4764347698377525
aF2.003062516450882
aF0.0
aF1.888138900200526
ag2
(g3
g4
Ntp197
Rp198
(lp199
g2
(g8
g4
Ntp200
Rp201
(lp202
F0.11438396227480506
aF0.0
aF0.0
abag2
(g8
g4
Ntp203
Rp204
(lp205
F0.0
aF0.0
aF0.0
ababtp206
a((lp207
F1.0593518515427907
aF1.8289999924600124
aF3.4862727143547754
aF2.0302499905228615
aF0.0
aF1.8137647088836222
ag2
(g3
g4
Ntp208
Rp209
(lp210
g2
(g8
g4
Ntp211
Rp212
(lp213
F0.10294556604732455
aF0.0
aF0.0
abag2
(g8
g4
Ntp214
Rp215
(lp216
F0.0
aF0.0
aF0.0
ababtp217
a((lp218
F1.0286481512917414
aF1.7729687578976154
aF3.5043999671936037
aF2.0475000076823764
aF0.0
aF1.722529411315918
ag209
tp219
a((lp220
F1.0073818174275484
aF1.7599117755889893
aF3.5171499729156492
aF2.0681579175748324
aF0.0
aF1.751083340909746
ag209
tp221
a((lp222
F0.9841818202625622
aF1.7111764830701492
aF3.481499981880188
aF2.232947362096686
aF0.0
aF1.7135277887185414
ag2
(g3
g4
Ntp223
Rp224
(lp225
g2
(g8
g4
Ntp226
Rp227
(lp228
F0.0926510094425921
aF0.0
aF0.0
abag2
(g8
g4
Ntp229
Rp230
(lp231
F0.0
aF0.0
aF0.0
ababtp232
a((lp233
F0.9615000039339066
aF1.7142285789762224
aF3.505105269582648
aF2.251611113548279
aF0.0
aF1.6377142804009575
ag224
tp234
a((lp235
F0.939410714166505
aF1.707151514111143
aF3.518499983681573
aF2.2745555639266968
aF0.0
aF1.6308333277702332
ag2
(g3
g4
Ntp236
Rp237
(lp238
g2
(g8
g4
Ntp239
Rp240
(lp241
F0.0750473176484996
aF0.0
aF0.0
abag2
(g8
g4
Ntp242
Rp243
(lp244
F0.0
aF0.0
aF0.0
ababtp245
a((lp246
F0.8799245301282631
aF1.6217058721710653
aF3.580454544587569
aF2.2097058857188507
aF0.0
aF1.5017714364188057
ag237
tp247
a((lp248
F0.8618181846358559
aF1.5672571454729354
aF3.542277773221334
aF2.3495294206282673
aF0.0
aF1.4996666643354628
ag2
(g3
g4
Ntp249
Rp250
(lp251
g2
(g8
g4
Ntp252
Rp253
(lp254
F0.06754258588364964
aF0.0
aF0.0
abag2
(g8
g4
Ntp255
Rp256
(lp257
F0.0
aF0.0
aF0.0
ababtp258
a((lp259
F0.8463333359471074
aF1.5276944355832205
aF3.546105246794851
aF2.3404999838935003
aF0.0
aF1.4699444423119228
ag250
tp260
a((lp261
F0.8130555561295262
aF1.5260555528932147
aF3.608608691588692
aF2.386764708687277
aF0.0
aF1.4455405425381016
ag2
(g3
g4
Ntp262
Rp263
(lp264
g2
(g8
g4
Ntp265
Rp266
(lp267
F0.06078832729528468
aF0.0
aF0.0
abag2
(g8
g4
Ntp268
Rp269
(lp270
F0.0
aF0.0
aF0.0
ababtp271
a((lp272
F0.7990555586638274
aF1.4825675680830672
aF3.6129047530038014
aF2.55062498152256
aF0.0
aF1.4203513538515247
ag263
tp273
a((lp274
F0.7854717002724702
aF1.4682500147157245
aF3.6239999890327455
aF2.5719333489735923
aF0.0
aF1.394405405263643
ag2
(g3
g4
Ntp275
Rp276
(lp277
g2
(g8
g4
Ntp278
Rp279
(lp280
F0.05470949456575622
aF0.0
aF0.0
abag2
(g8
g4
Ntp281
Rp282
(lp283
F0.0
aF0.0
aF0.0
ababtp284
a((lp285
F0.7613999995318326
aF1.4666388928890228
aF3.6582380703517368
aF2.471666669845581
aF0.0
aF1.360499992966652
ag2
(g3
g4
Ntp286
Rp287
(lp288
g2
(g8
g4
Ntp289
Rp290
(lp291
F0.0492385451091806
aF0.0
aF0.0
abag2
(g8
g4
Ntp292
Rp293
(lp294
F0.0
aF0.0
aF0.0
ababtp295
a((lp296
F0.7469629645347595
aF1.4189473657231582
aF3.6536956455396568
aF2.601562485098839
aF0.0
aF1.3284864860611993
ag287
tp297
a((lp298
F0.7363207531425188
aF1.4087027053575258
aF3.63027269190008
aF2.4891428436551775
aF0.0
aF1.3106486539582949
ag2
(g3
g4
Ntp299
Rp300
(lp301
g2
(g8
g4
Ntp302
Rp303
(lp304
F0.04431469059826254
aF0.0
aF0.0
abag2
(g8
g4
Ntp305
Rp306
(lp307
F0.0
aF0.0
aF0.0
ababtp308
a((lp309
F0.7154821402260235
aF1.369216211744257
aF3.669857150032407
aF2.517307703311627
aF0.0
aF1.24399999777476
ag2
(g3
g4
Ntp310
Rp311
(lp312
g2
(g8
g4
Ntp313
Rp314
(lp315
F0.039883221538436285
aF0.0
aF0.0
abag2
(g8
g4
Ntp316
Rp317
(lp318
F0.0
aF0.0
aF0.0
ababtp319
a((lp320
F0.7044814802982189
aF1.3459999980153263
aF3.6506666910080683
aF2.6450000320162093
aF0.0
aF1.2026285750525338
ag311
tp321
a((lp322
F0.6867407416855847
aF1.309131583100871
aF3.7142399883270265
aF2.4974666913350423
aF0.0
aF1.2155945977649174
ag2
(g3
g4
Ntp323
Rp324
(lp325
g2
(g8
g4
Ntp326
Rp327
(lp328
F0.03589489938459266
aF0.0
aF0.0
abag2
(g8
g4
Ntp329
Rp330
(lp331
F0.0
aF0.0
aF0.0
ababtp332
a((lp333
F0.6782075481594734
aF1.3002702609912768
aF3.6873181841590186
aF2.708294090102701
aF0.0
aF1.1990270244108665
ag2
(g3
g4
Ntp334
Rp335
(lp336
g2
(g8
g4
Ntp337
Rp338
(lp339
F0.029074868501520055
aF0.0
aF0.0
abag2
(g8
g4
Ntp340
Rp341
(lp342
F0.0
aF0.0
aF0.0
ababtp343
a((lp344
F0.6569090929898349
aF1.2645555684963863
aF3.732041656970978
aF2.6368750035762787
aF0.0
aF1.1383611030048795
ag335
tp345
a((lp346
F0.6499636357480829
aF1.2407027096361727
aF3.7016363469037143
aF2.526533317565918
aF0.0
aF1.1262500037749608
ag2
(g3
g4
Ntp347
Rp348
(lp349
g2
(g8
g4
Ntp350
Rp351
(lp352
F0.02616738165136805
aF0.0
aF0.0
abag2
(g8
g4
Ntp353
Rp354
(lp355
F0.0
aF0.0
aF0.0
ababtp356
a.(lp0
((lp1
F2.412653849675105
aF3.179230726682223
aF2.7527428558894567
aF0.8207419341610324
aF3.3550000190734863
aF3.6391363685781304
accopy_reg
_reconstructor
p2
(cgeometry_msgs.msg._Twist
Twist
p3
c__builtin__
object
p4
Ntp5
Rp6
(lp7
g2
(cgeometry_msgs.msg._Vector3
Vector3
p8
g4
Ntp9
Rp10
(lp11
F0.5
aF0.0
aF0.0
abag2
(g8
g4
Ntp12
Rp13
(lp14
F0.0
aF0.0
aF0.0
ababtp15
a((lp16
F2.4138235297857547
aF3.176642860685076
aF2.7529142720358712
aF0.8255625031888485
aF2.2300000190734863
aF3.6076666514078775
ag6
tp17
a((lp18
F2.404981127325094
aF2.9620500087738035
aF2.755428559439523
aF0.8214516178254159
aF2.2320001125335693
aF3.5764285836900984
ag2
(g3
g4
Ntp19
Rp20
(lp21
g2
(g8
g4
Ntp22
Rp23
(lp24
F0.45
aF0.0
aF0.0
abag2
(g8
g4
Ntp25
Rp26
(lp27
F0.0
aF0.0
aF0.0
ababtp28
a((lp29
F2.362886797707036
aF3.0333683992687024
aF2.7772222293747797
aF0.8779999949038029
aF0.0
aF3.4096999883651735
ag20
tp30
a((lp31
F2.2904423154317417
aF2.989833335081736
aF2.8135588379467236
aF0.9467500001192093
aF4.011500000953674
aF3.373954502019015
ag2
(g3
g4
Ntp32
Rp33
(lp34
g2
(g8
g4
Ntp35
Rp36
(lp37
F0.405
aF0.0
aF0.0
abag2
(g8
g4
Ntp38
Rp39
(lp40
F0.0
aF0.0
aF0.0
ababtp41
a((lp42
F2.220207560737178
aF2.917176471037023
aF2.843774195640318
aF0.9198214347873416
aF0.0
aF3.2795416514078775
ag33
tp43
a((lp44
F2.152113199234009
aF2.964222232500712
aF3.000749997794628
aF0.9764230732734387
aF0.0
aF3.174833337465922
ag2
(g3
g4
Ntp45
Rp46
(lp47
g2
(g8
g4
Ntp48
Rp49
(lp50
F0.36450000000000005
aF0.0
aF0.0
abag2
(g8
g4
Ntp51
Rp52
(lp53
F0.0
aF0.0
aF0.0
ababtp54
a((lp55
F2.0819811506091424
aF2.9096363457766445
aF3.0064333359400432
aF1.1511851836133886
aF0.0
aF3.1165600299835203
ag46
tp56
a((lp57
F2.011698115546748
aF2.9547777705722384
aF3.050766674677531
aF1.1022799944877624
aF0.0
aF3.0019600009918213
ag2
(g3
g4
Ntp58
Rp59
(lp60
g2
(g8
g4
Ntp61
Rp62
(lp63
F0.32805000000000006
aF0.0
aF0.0
abag2
(g8
g4
Ntp64
Rp65
(lp66
F0.0
aF0.0
aF0.0
ababtp67
a((lp68
F1.9442115403138673
aF2.88542103767395
aF3.086517235328411
aF1.1707916508118312
aF0.0
aF2.947884568801293
ag59
tp69
a((lp70
F1.8718461577708905
aF2.790105255026566
aF3.1171481432738126
aF1.2108181660825557
aF0.0
aF2.867629616348832
ag2
(g3
g4
Ntp71
Rp72
(lp73
g2
(g8
g4
Ntp74
Rp75
(lp76
F0.2952450000000001
aF0.0
aF0.0
abag2
(g8
g4
Ntp77
Rp78
(lp79
F0.0
aF0.0
aF0.0
ababtp80
a((lp81
F1.8062641508174393
aF2.693380968911307
aF3.1382857135363986
aF1.2751818136735396
aF0.0
aF2.8069285494940623
ag72
tp82
a((lp83
F1.737576927130039
aF2.624136361208829
aF3.2064230900544386
aF1.361782607824906
aF0.0
aF2.7235517172977843
ag2
(g3
g4
Ntp84
Rp85
(lp86
g2
(g8
g4
Ntp87
Rp88
(lp89
F0.2657205000000001
aF0.0
aF0.0
abag2
(g8
g4
Ntp90
Rp91
(lp92
F0.0
aF0.0
aF0.0
ababtp93
a((lp94
F1.6712037126223247
aF2.5682608873947808
aF3.1898076901069055
aF1.4146363572640852
aF0.0
aF2.646299974123637
ag2
(g3
g4
Ntp95
Rp96
(lp97
g2
(g8
g4
Ntp98
Rp99
(lp100
F0.23914845000000007
aF0.0
aF0.0
abag2
(g8
g4
Ntp101
Rp102
(lp103
F0.0
aF0.0
aF0.0
ababtp104
a((lp105
F1.6056481533580356
aF2.5122916599114737
aF3.2181785873004367
aF1.4839999973773956
aF0.0
aF2.5788387021710797
ag96
tp106
a((lp107
F1.545314817516892
aF2.4577200174331666
aF3.1685769099455614
aF1.544650000333786
aF0.0
aF2.52487500756979
ag2
(g3
g4
Ntp108
Rp109
(lp110
g2
(g8
g4
Ntp111
Rp112
(lp113
F0.21523360500000008
aF0.0
aF0.0
abag2
(g8
g4
Ntp114
Rp115
(lp116
F0.0
aF0.0
aF0.0
ababtp117
a((lp118
F1.4894716874608454
aF2.3584399938583376
aF3.2499999823393644
aF1.5857368456689935
aF0.0
aF2.4704242294484917
ag109
tp119
a((lp120
F1.4365283115854803
aF2.3184615190212545
aF3.2244230783902683
aF1.6470526331349422
aF0.0
aF2.376030278928352
ag2
(g3
g4
Ntp121
Rp122
(lp123
g2
(g8
g4
Ntp124
Rp125
(lp126
F0.19371024450000007
aF0.0
aF0.0
abag2
(g8
g4
Ntp127
Rp128
(lp129
F0.0
aF0.0
aF0.0
ababtp130
a((lp131
F1.3857592587117795
aF2.2730000151528253
aF3.2315999984741213
aF1.7004736850136204
aF0.0
aF2.329500005525701
ag122
tp132
a((lp133
F1.3355098074557734
aF2.178071426493781
aF3.24556001663208
aF1.7332222130563524
aF0.0
aF2.2003333243456753
ag2
(g3
g4
Ntp134
Rp135
(lp136
g2
(g8
g4
Ntp137
Rp138
(lp139
F0.17433922005000008
aF0.0
aF0.0
abag2
(g8
g4
Ntp140
Rp141
(lp142
F0.0
aF0.0
aF0.0
ababtp143
a((lp144
F1.2960754677934467
aF2.145517246476535
aF3.299961511905377
aF1.7775555584165785
aF0.0
aF2.166088240988114
ag135
tp145
a((lp146
F1.2543396387460097
aF2.0739655289156684
aF3.27460000038147
aF1.8187222282091777
aF0.0
aF2.147382354035097
ag2
(g3
g4
Ntp147
Rp148
(lp149
g2
(g8
g4
Ntp150
Rp151
(lp152
F0.15690529804500009
aF0.0
aF0.0
abag2
(g8
g4
Ntp153
Rp154
(lp155
F0.0
aF0.0
aF0.0
ababtp156
a((lp157
F1.2146481408013239
aF2.006206907075027
aF3.346760005950928
aF1.8782105257636623
aF0.0
aF2.0658857141222273
ag148
tp158
a((lp159
F1.1774259320011846
aF2.005678564310074
aF3.3884782791137695
aF1.913888884915246
aF0.0
aF2.001257133483887
ag2
(g3
g4
Ntp160
Rp161
(lp162
g2
(g8
g4
Ntp163
Rp164
(lp165
F0.14121476824050008
aF0.0
aF0.0
abag2
(g8
g4
Ntp166
Rp167
(lp168
F0.0
aF0.0
aF0.0
ababtp169
a((lp170
F1.1414259230649029
aF1.9539032328513362
aF3.401304348655369
aF1.956235275549047
aF0.0
aF1.975111100408766
ag161
tp171
a((lp172
F1.1083584911418412
aF1.9071935530631774
aF3.436818166212602
aF1.9787499979138374
aF0.0
aF1.9108888904253643
ag2
(g3
g4
Ntp173
Rp174
(lp175
g2
(g8
g4
Ntp176
Rp177
(lp178
F0.12709329141645007
aF0.0
aF0.0
abag2
(g8
g4
Ntp179
Rp180
(lp181
F0.0
aF0.0
aF0.0
ababtp182
a((lp183
F1.0782037068296362
aF1.843187503516674
aF3.473499991677024
aF2.010124996304512
aF0.0
aF1.8159999881471907
ag174
tp184
a((lp185
F1.0471851858827803
aF1.8219393889109294
aF3.4517619155702137
aF2.04025000333786
aF0.0
aF1.801666667064031
ag2
(g3
g4
Ntp186
Rp187
(lp188
g2
(g8
g4
Ntp189
Rp190
(lp191
F0.11438396227480506
aF0.0
aF0.0
abag2
(g8
g4
Ntp192
Rp193
(lp194
F0.0
aF0.0
aF0.0
ababtp195
a((lp196
F1.0196607123528207
aF1.763818180922306
aF3.496523834410168
aF2.0693750083446503
aF0.0
aF1.753277775314119
ag187
tp197
a((lp198
F0.9889821431466511
aF1.8154000043869019
aF3.5155999779701235
aF2.088785699435643
aF0.0
aF1.6731714180537633
ag2
(g3
g4
Ntp199
Rp200
(lp201
g2
(g8
g4
Ntp202
Rp203
(lp204
F0.10294556604732455
aF0.0
aF0.0
abag2
(g8
g4
Ntp205
Rp206
(lp207
F0.0
aF0.0
aF0.0
ababtp208
a((lp209
F0.9639814816139363
aF1.705852960838991
aF3.546399986743927
aF2.1157500222325325
aF0.0
aF1.6245714323861258
ag200
tp210
a((lp211
F0.9425272670659152
aF1.6892571449279785
aF3.5638095197223483
aF2.1205999930699666
aF0.0
aF1.6132222149107192
ag2
(g3
g4
Ntp212
Rp213
(lp214
g2
(g8
g4
Ntp215
Rp216
(lp217
F0.0926510094425921
aF0.0
aF0.0
abag2
(g8
g4
Ntp218
Rp219
(lp220
F0.0
aF0.0
aF0.0
ababtp221
a((lp222
F0.9196296290115074
aF1.6260302969903657
aF3.5698999881744387
aF2.1600624844431877
aF0.0
aF1.5763055582841237
ag213
tp223
a((lp224
F0.896928574357714
aF1.6178857156208584
aF3.5867500066757203
aF2.2848750352859497
aF0.0
aF1.5396944450007544
ag2
(g3
g4
Ntp225
Rp226
(lp227
g2
(g8
g4
Ntp228
Rp229
(lp230
F0.08338590849833288
aF0.0
aF0.0
abag2
(g8
g4
Ntp231
Rp232
(lp233
F0.0
aF0.0
aF0.0
ababtp234
a((lp235
F0.8754181840203025
aF1.6178333428170946
aF3.580899953842163
aF2.3037647149142098
aF0.0
aF1.4756571463176182
ag226
tp236
a((lp237
F0.855388887502529
aF1.5399428503853934
aF3.5911499738693236
aF2.3685624599456787
aF0.0
aF1.4992702716105692
ag2
(g3
g4
Ntp238
Rp239
(lp240
g2
(g8
g4
Ntp241
Rp242
(lp243
F0.0750473176484996
aF0.0
aF0.0
abag2
(g8
g4
Ntp244
Rp245
(lp246
F0.0
aF0.0
aF0.0
ababtp247
a((lp248
F0.8375282984859539
aF1.5441666742165883
aF3.6235908920114692
aF2.384187489748001
aF0.0
aF1.4085428595542908
ag239
tp249
a((lp250
F0.8186481517774088
aF1.509888897339503
aF3.602421020206652
aF2.412999987602234
aF0.0
aF1.3799428514071874
ag239
tp251
a((lp252
F0.8024444425547564
aF1.5202432580896326
aF3.5835555526945324
aF2.434666649500529
aF0.0
aF1.3521999955177306
ag239
tp253
a((lp254
F0.7883333287857197
aF1.4854054016035956
aF3.606454534964128
aF2.448749989271164
aF0.0
aF1.3768378496170044
ag2
(g3
g4
Ntp255
Rp256
(lp257
g2
(g8
g4
Ntp258
Rp259
(lp260
F0.06754258588364964
aF0.0
aF0.0
abag2
(g8
g4
Ntp261
Rp262
(lp263
F0.0
aF0.0
aF0.0
ababtp264
a((lp265
F0.7725000028257016
aF1.4350882295299978
aF3.567631583464773
aF2.3242666403452557
aF0.0
aF1.349054054633991
ag256
tp266
a((lp267
F0.7558545405214483
aF1.4310000042120616
aF3.6144210288399146
aF2.4555999914805096
aF0.0
aF1.2712285705975124
ag2
(g3
g4
Ntp268
Rp269
(lp270
g2
(g8
g4
Ntp271
Rp272
(lp273
F0.06078832729528468
aF0.0
aF0.0
abag2
(g8
g4
Ntp274
Rp275
(lp276
F0.0
aF0.0
aF0.0
ababtp277
a((lp278
F0.7390740756635312
aF1.4472702628857381
aF3.6596666744777133
aF2.590749979019165
aF0.0
aF1.2471428598676408
ag269
tp279
a((lp280
F0.72543396027583
aF1.4188918922398541
aF3.6767142840794156
aF2.607823568231919
aF0.0
aF1.26654054506405
ag269
tp281
a((lp282
F0.7121730767763578
aF1.3907567552618079
aF3.631318200718273
aF2.5739411746754364
aF0.0
aF1.219138890504837
ag2
(g3
g4
Ntp283
Rp284
(lp285
g2
(g8
g4
Ntp286
Rp287
(lp288
F0.05470949456575622
aF0.0
aF0.0
abag2
(g8
g4
Ntp289
Rp290
(lp291
F0.0
aF0.0
aF0.0
ababtp292
a((lp293
F0.6981818188320507
aF1.3686486498729602
aF3.685681852427396
aF2.456470580661998
aF0.0
aF1.175142855303628
ag284
tp294
a((lp295
F0.6862962974442376
aF1.3310526264341254
aF3.655900001525879
aF2.4820000213735245
aF0.0
aF1.1974594544720005
ag284
tp296
a((lp297
F0.6764629615677727
aF1.3175135158203743
aF3.6652000069618227
aF2.6174999997019768
aF0.0
aF1.1772702706826699
ag2
(g3
g4
Ntp298
Rp299
(lp300
g2
(g8
g4
Ntp301
Rp302
(lp303
F0.0492385451091806
aF0.0
aF0.0
abag2
(g8
g4
Ntp304
Rp305
(lp306
F0.0
aF0.0
aF0.0
ababtp307
a((lp308
F0.6513454502279108
aF1.2636579039849734
aF3.7155652253524116
aF2.595857177461897
aF0.0
aF1.1384594553225749
ag299
tp309
a((lp310
F0.651999995664314
aF1.2636579039849734
aF3.688500014218417
aF2.7102000236511232
aF0.0
aF1.1384594553225749
ag299
tp311
a.(lp0
((lp1
F2.4222800016403196
aF3.386299967765808
aF2.7166857174464636
aF0.7197200012207031
aF0.0
aF3.4364761965615407
accopy_reg
_reconstructor
p2
(cgeometry_msgs.msg._Twist
Twist
p3
c__builtin__
object
p4
Ntp5
Rp6
(lp7
g2
(cgeometry_msgs.msg._Vector3
Vector3
p8
g4
Ntp9
Rp10
(lp11
F0.36450000000000005
aF0.0
aF0.0
abag2
(g8
g4
Ntp12
Rp13
(lp14
F0.0
aF0.0
aF0.0
ababtp15
a((lp16
F2.417979600478192
aF3.4004444546169705
aF2.7158857004983084
aF0.7159999998716208
aF0.0
aF3.48145452412692
ag6
tp17
a((lp18
F2.4172156885558485
aF3.4047777387830944
aF2.717142847606114
aF0.7334800028800964
aF3.7955000400543213
aF3.3888260592585024
ag2
(g3
g4
Ntp19
Rp20
(lp21
g2
(g8
g4
Ntp22
Rp23
(lp24
F0.32805000000000006
aF0.0
aF0.0
abag2
(g8
g4
Ntp25
Rp26
(lp27
F0.0
aF0.0
aF0.0
ababtp28
a((lp29
F2.3654807806015015
aF3.2861666282018027
aF2.7456176351098454
aF0.8101379316428612
aF0.0
aF3.383958329757055
ag20
tp30
a((lp31
F2.288980385836433
aF3.2736922961014967
aF2.777823532328886
aF0.880517236117659
aF0.0
aF3.2896538422657895
ag2
(g3
g4
Ntp32
Rp33
(lp34
g2
(g8
g4
Ntp35
Rp36
(lp37
F0.2952450000000001
aF0.0
aF0.0
abag2
(g8
g4
Ntp38
Rp39
(lp40
F0.0
aF0.0
aF0.0
ababtp41
a((lp42
F2.2229019473580753
aF3.420142889022827
aF2.805857140677316
aF0.919499990840753
aF0.0
aF3.1820000134981594
ag33
tp43
a((lp44
F2.1571153814976034
aF3.1054999828338623
aF2.8618788141192812
aF0.9811250021060308
aF0.0
aF3.072115421295166
ag2
(g3
g4
Ntp45
Rp46
(lp47
g2
(g8
g4
Ntp48
Rp49
(lp50
F0.2657205000000001
aF0.0
aF0.0
abag2
(g8
g4
Ntp51
Rp52
(lp53
F0.0
aF0.0
aF0.0
ababtp54
a((lp55
F2.0876226560124813
aF3.0904999801090787
aF2.8985312655568123
aF1.0407499969005585
aF0.0
aF3.027538455449618
ag46
tp56
a((lp57
F2.022169812670294
aF3.017466640472412
aF2.9366896810202765
aF1.105173919511878
aF0.0
aF2.9525714346340726
ag46
tp58
a((lp59
F1.960415095653174
aF2.9301999886830647
aF3.047249981335231
aF1.150954539125616
aF0.0
aF2.864964280809675
ag2
(g3
g4
Ntp60
Rp61
(lp62
g2
(g8
g4
Ntp63
Rp64
(lp65
F0.23914845000000007
aF0.0
aF0.0
abag2
(g8
g4
Ntp66
Rp67
(lp68
F0.0
aF0.0
aF0.0
ababtp69
a((lp70
F1.901596147280473
aF2.871500000357628
aF3.0340769107525167
aF1.2139999974857678
aF0.0
aF2.8156551657051874
ag61
tp71
a((lp72
F1.8396603791218884
aF2.818999977672801
aF3.095384616118211
aF1.2761363766410134
aF0.0
aF2.7189999942121834
ag61
tp73
a((lp74
F1.7836666659072593
aF2.7714444398880005
aF3.095407388828419
aF1.316333327974592
aF0.0
aF2.7253548368330924
ag2
(g3
g4
Ntp75
Rp76
(lp77
g2
(g8
g4
Ntp78
Rp79
(lp80
F0.21523360500000008
aF0.0
aF0.0
abag2
(g8
g4
Ntp81
Rp82
(lp83
F0.0
aF0.0
aF0.0
ababtp84
a((lp85
F1.7296666635407343
aF2.649944437874688
aF3.1658148059138544
aF1.3747142723628454
aF0.0
aF2.6159032314054427
ag76
tp86
a((lp87
F1.6792075521541092
aF2.6443684101104736
aF3.1429230708342333
aF1.4193999946117402
aF0.0
aF2.5835000090301037
ag76
tp88
a((lp89
F1.6289074178095218
aF2.5422999978065492
aF3.1692500015099845
aF1.4656000018119812
aF0.0
aF2.5479999961275044
ag2
(g3
g4
Ntp90
Rp91
(lp92
g2
(g8
g4
Ntp93
Rp94
(lp95
F0.19371024450000007
aF0.0
aF0.0
abag2
(g8
g4
Ntp96
Rp97
(lp98
F0.0
aF0.0
aF0.0
ababtp99
a((lp100
F1.5803518538121824
aF2.4963809649149575
aF3.1671199798583984
aF1.5137499928474427
aF0.0
aF2.4670909065188784
ag91
tp101
a((lp102
F1.5327735779420384
aF2.453619043032328
aF3.1838928631373813
aF1.5470000003513538
aF0.0
aF2.4235294040511635
ag91
tp103
a((lp104
F1.4856923016218038
aF2.422608696896097
aF3.2062962849934897
aF1.5941578839954578
aF0.0
aF2.353794104912702
ag91
tp105
a((lp106
F1.4415769210228553
aF2.415050005912781
aF3.204519996643066
aF1.657411764649784
aF0.0
aF2.3155142886298044
ag91
tp107
a((lp108
F1.3988703687985737
aF2.3176087037376734
aF3.2332857080868314
aF1.6894210451527645
aF0.0
aF2.2463143042155673
ag2
(g3
g4
Ntp109
Rp110
(lp111
g2
(g8
g4
Ntp112
Rp113
(lp114
F0.17433922005000008
aF0.0
aF0.0
abag2
(g8
g4
Ntp115
Rp116
(lp117
F0.0
aF0.0
aF0.0
ababtp118
a((lp119
F1.3542353008307664
aF2.2433749785025916
aF3.245076903930077
aF1.7253529324251062
aF0.0
aF2.174714289392744
ag110
tp120
a((lp121
F1.3125098055484248
aF2.2797272963957353
aF3.2653200149536135
aF1.7678235208286959
aF0.0
aF2.0655588262221394
ag110
tp122
a((lp123
F1.2727307700193846
aF2.267478269079457
aF3.2576399993896485
aF1.807176477768842
aF0.0
aF2.0336857114519393
ag110
tp124
a((lp125
F1.2356226421752066
aF2.1895652231962783
aF3.2867307662963867
aF1.844117655473597
aF0.0
aF2.0073888864782123
ag2
(g3
g4
Ntp126
Rp127
(lp128
g2
(g8
g4
Ntp129
Rp130
(lp131
F0.15690529804500009
aF0.0
aF0.0
abag2
(g8
g4
Ntp132
Rp133
(lp134
F0.0
aF0.0
aF0.0
ababtp135
a((lp136
F1.2013018873502623
aF2.0818148144969233
aF3.3066400146484374
aF1.8567647162605734
aF0.0
aF1.9766216213638719
ag127
tp137
a((lp138
F1.1640754713202424
aF2.0369629550863197
aF3.3307200145721434
aF1.9142666419347127
aF0.0
aF1.846714288847787
ag127
tp139
a((lp140
F1.0584727319804106
aF1.8930357098579407
aF3.375000011353266
aF2.0307999928792317
aF0.0
aF1.6778571367263795
ag2
(g3
g4
Ntp141
Rp142
(lp143
g2
(g8
g4
Ntp144
Rp145
(lp146
F0.14121476824050008
aF0.0
aF0.0
abag2
(g8
g4
Ntp147
Rp148
(lp149
F0.0
aF0.0
aF0.0
ababtp150
a((lp151
F1.0596481528547075
aF1.9263793024523506
aF3.375000011353266
aF2.0307999928792317
aF0.0
aF1.6778571367263795
ag142
tp152
a((lp153
F0.9945769206835673
aF1.8442333340644836
aF3.4366000056266786
aF2.1443529619890103
aF0.0
aF1.5719142845698766
ag2
(g3
g4
Ntp154
Rp155
(lp156
g2
(g8
g4
Ntp157
Rp158
(lp159
F0.12709329141645007
aF0.0
aF0.0
abag2
(g8
g4
Ntp160
Rp161
(lp162
F0.0
aF0.0
aF0.0
ababtp163
a((lp164
F0.9638518514456572
aF1.7897666573524476
aF3.500105242980154
aF2.1720000240537853
aF0.0
aF1.5228285755429949
ag155
tp165
a((lp166
F0.9074999999116968
aF1.71264515384551
aF3.50800000993829
aF2.179500017847334
aF0.0
aF1.4825405365711934
ag2
(g3
g4
Ntp167
Rp168
(lp169
g2
(g8
g4
Ntp170
Rp171
(lp172
F0.11438396227480506
aF0.0
aF0.0
abag2
(g8
g4
Ntp173
Rp174
(lp175
F0.0
aF0.0
aF0.0
ababtp176
a((lp177
F0.8810535690614155
aF1.6204848433985855
aF3.5527619293757846
aF2.205999970436096
aF0.0
aF1.390828570297786
ag2
(g3
g4
Ntp178
Rp179
(lp180
g2
(g8
g4
Ntp181
Rp182
(lp183
F0.10294556604732455
aF0.0
aF0.0
abag2
(g8
g4
Ntp184
Rp185
(lp186
F0.0
aF0.0
aF0.0
ababtp187
a((lp188
F0.8287547129505085
aF1.5252121145075017
aF3.588095256260463
aF2.2714166839917502
aF0.0
aF1.3557837766570013
ag2
(g3
g4
Ntp189
Rp190
(lp191
g2
(g8
g4
Ntp192
Rp193
(lp194
F0.0926510094425921
aF0.0
aF0.0
abag2
(g8
g4
Ntp195
Rp196
(lp197
F0.0
aF0.0
aF0.0
ababtp198
a((lp199
F0.8054150961480051
aF1.515382351244197
aF3.5747999787330627
aF2.37575002014637
aF0.0
aF1.3182162320291675
ag2
(g3
g4
Ntp200
Rp201
(lp202
g2
(g8
g4
Ntp203
Rp204
(lp205
F0.08338590849833288
aF0.0
aF0.0
abag2
(g8
g4
Ntp206
Rp207
(lp208
F0.0
aF0.0
aF0.0
ababtp209
a((lp210
F0.7854629622565376
aF1.470794116749483
aF3.6367499828338623
aF2.2989285673413957
aF0.0
aF1.2399714401790074
ag201
tp211
a((lp212
F0.7460925899170063
aF1.52448275788077
aF3.625772714614868
aF2.359499990940094
aF0.0
aF1.220594594607482
ag2
(g3
g4
Ntp213
Rp214
(lp215
g2
(g8
g4
Ntp216
Rp217
(lp218
F0.06754258588364964
aF0.0
aF0.0
abag2
(g8
g4
Ntp219
Rp220
(lp221
F0.0
aF0.0
aF0.0
ababtp222
a((lp223
F0.7289999977306083
aF1.418470593059764
aF3.643499959598888
aF2.3582142932074412
aF0.0
aF1.1704166664017572
ag214
tp224
a((lp225
F0.7096296306009646
aF1.3897878943067608
aF3.632055547502306
aF2.3002500236034393
aF0.0
aF1.1603783723470327
ag2
(g3
g4
Ntp226
Rp227
(lp228
g2
(g8
g4
Ntp229
Rp230
(lp231
F0.06078832729528468
aF0.0
aF0.0
abag2
(g8
g4
Ntp232
Rp233
(lp234
F0.0
aF0.0
aF0.0
ababtp235
a((lp236
F0.6811272729526866
aF1.3249117749578811
aF3.6326111025280423
aF2.3955000241597495
aF0.0
aF1.1122432496096637
ag2
(g3
g4
Ntp237
Rp238
(lp239
g2
(g8
g4
Ntp240
Rp241
(lp242
F0.05470949456575622
aF0.0
aF0.0
abag2
(g8
g4
Ntp243
Rp244
(lp245
F0.0
aF0.0
aF0.0
ababtp246
a((lp247
F0.6684150920723969
aF1.3380857075963701
aF3.709857157298497
aF2.421727245504206
aF0.0
aF1.09091892435744
ag238
tp248
a((lp249
F0.644055555264155
aF1.2860285639762878
aF3.7080952439989363
aF2.4483636292544277
aF0.0
aF1.0348333368698757
ag2
(g3
g4
Ntp250
Rp251
(lp252
g2
(g8
g4
Ntp253
Rp254
(lp255
F0.0492385451091806
aF0.0
aF0.0
abag2
(g8
g4
Ntp256
Rp257
(lp258
F0.0
aF0.0
aF0.0
ababtp259
a((lp260
F0.6205185232339082
aF1.202823528472115
aF3.661947350752981
aF2.4719090895219282
aF0.0
aF1.0164864804293658
ag2
(g3
g4
Ntp261
Rp262
(lp263
g2
(g8
g4
Ntp264
Rp265
(lp266
F0.039883221538436285
aF0.0
aF0.0
abag2
(g8
g4
Ntp267
Rp268
(lp269
F0.0
aF0.0
aF0.0
ababtp270
a((lp271
F0.6783518493175507
aF1.2084285650934492
aF3.617222229639689
aF2.4818181774832984
aF0.0
aF1.016289472579956
ag2
(g3
g4
Ntp272
Rp273
(lp274
g2
(g8
g4
Ntp275
Rp276
(lp277
F0.03589489938459266
aF0.0
aF0.0
abag2
(g8
g4
Ntp278
Rp279
(lp280
F0.0
aF0.0
aF0.0
ababtp281
a((lp282
F0.5895490202249265
aF1.199837840892173
aF3.7144545208324087
aF2.504090916026722
aF0.0
aF0.9695945945945946
ag2
(g3
g4
Ntp283
Rp284
(lp285
g2
(g8
g4
Ntp286
Rp287
(lp288
F0.032305409446133394
aF0.0
aF0.0
abag2
(g8
g4
Ntp289
Rp290
(lp291
F0.0
aF0.0
aF0.0
ababtp292
a((lp293
F0.5827547165582765
aF1.1910277803738911
aF3.743545478040522
aF2.6834166447321572
aF0.0
aF0.9407499995496538
ag2
(g3
g4
Ntp294
Rp295
(lp296
g2
(g8
g4
Ntp297
Rp298
(lp299
F0.029074868501520055
aF0.0
aF0.0
abag2
(g8
g4
Ntp300
Rp301
(lp302
F0.0
aF0.0
aF0.0
ababtp303
a((lp304
F0.5827547165582765
aF1.1910277803738911
aF3.743545478040522
aF2.6834166447321572
aF0.0
aF0.9407499995496538
ag2
(g3
g4
Ntp305
Rp306
(lp307
g2
(g8
g4
Ntp308
Rp309
(lp310
F0.02616738165136805
aF0.0
aF0.0
abag2
(g8
g4
Ntp311
Rp312
(lp313
F0.0
aF0.0
aF0.0
ababtp314
a((lp315
F0.5748679266785676
aF1.1641621654098098
aF3.74481818892739
aF2.5231817852367056
aF0.0
aF0.9461081108531436
ag2
(g3
g4
Ntp316
Rp317
(lp318
g2
(g8
g4
Ntp319
Rp320
(lp321
F0.023550643486231246
aF0.0
aF0.0
abag2
(g8
g4
Ntp322
Rp323
(lp324
F0.0
aF0.0
aF0.0
ababtp325
a((lp326
F0.5687115364349805
aF1.1524324401004895
aF3.693318182771856
aF2.6172307638021617
aF0.0
aF0.91916666759385
ag2
(g3
g4
Ntp327
Rp328
(lp329
g2
(g8
g4
Ntp330
Rp331
(lp332
F0.021195579137608122
aF0.0
aF0.0
abag2
(g8
g4
Ntp333
Rp334
(lp335
F0.0
aF0.0
aF0.0
ababtp336
a((lp337
F0.5637547216325436
aF1.1678285769053869
aF3.7129999910082137
aF2.634153824586135
aF0.0
aF0.9119722180896335
ag2
(g3
g4
Ntp338
Rp339
(lp340
g2
(g8
g4
Ntp341
Rp342
(lp343
F0.01907602122384731
aF0.0
aF0.0
abag2
(g8
g4
Ntp344
Rp345
(lp346
F0.0
aF0.0
aF0.0
ababtp347
a.