(lp0
((lp1
F2.452694442537096
aF4.726500034332275
aF0.7744358961398785
aF0.8918260776478312
aF0.0
aF3.2293999671936033
accopy_reg
_reconstructor
p2
(cgeometry_msgs.msg._Twist
Twist
p3
c__builtin__
object
p4
Ntp5
Rp6
(lp7
g2
(cgeometry_msgs.msg._Vector3
Vector3
p8
g4
Ntp9
Rp10
(lp11
F0.0
aF0.0
aF0.0
abag2
(g8
g4
Ntp12
Rp13
(lp14
F0.0
aF0.0
aF0.0
ababtp15
a((lp16
F2.4608378410339355
aF4.802000045776367
aF0.7807435867113944
aF0.8624782614085985
aF1.393999993801117
aF3.265000009536743
ag6
tp17
a((lp18
F2.4600540431770117
aF4.552000045776367
aF0.7588157857719221
aF0.9325599932670593
aF1.2536666790644329
aF3.2573333183924356
ag6
tp19
a((lp20
F2.4520555668407016
aF4.822999954223633
aF0.7806666585115286
aF0.8950000068415767
aF2.0322499871253967
aF3.2676666577657065
ag6
tp21
a((lp22
F2.461027010067089
aF0.0
aF0.7779999924333472
aF0.9627999973297119
aF1.6979999542236328
aF3.311399984359741
ag6
tp23
a((lp24
F2.4596216163119755
aF4.563000202178955
aF0.793999993801117
aF0.9317599987983703
aF0.0
aF3.2822499871253967
ag6
tp25
a((lp26
F2.4586216243537695
aF0.0
aF0.7887368374749234
aF0.8851666649182638
aF1.5972500145435333
aF3.310499995946884
ag6
tp27
a((lp28
F2.460243237985147
aF4.563000202178955
aF0.7894999949555648
aF0.8987391331921453
aF1.3765000104904175
aF3.229200029373169
ag6
tp29
a((lp30
F2.4584210609134876
aF4.434000015258789
aF0.7997179459302853
aF0.8553333310853868
aF0.0
aF3.277714320591518
ag6
tp31
a((lp32
F2.4599189307238603
aF4.497999827067058
aF0.7885526261831585
aF0.9145833402872086
aF1.3830000162124634
aF3.3235000371932983
ag6
tp33
a((lp34
F2.459864854812622
aF4.489000002543132
aF0.7944249913096428
aF0.8633913060893184
aF1.4942500293254852
aF3.2840000220707486
ag6
tp35
a((lp36
F2.458729731070029
aF4.515499830245972
aF0.782948707922911
aF0.9309599995613098
aF1.3524999618530273
aF3.3171428612300327
ag6
tp37
a((lp38
F2.459648628492613
aF4.360000133514404
aF0.7831794818242391
aF0.8418636430393566
aF1.9375
aF3.3096249997615814
ag6
tp39
a((lp40
F2.459324314787581
aF4.415666580200195
aF0.8134877943411106
aF0.8635652194852415
aF1.343500018119812
aF3.2731428827558244
ag6
tp41
a((lp42
F2.4599459493482434
aF0.0
aF0.8088048725593381
aF0.8636956551800603
aF2.283250004053116
aF3.299142905644008
ag6
tp43
a((lp44
F2.4594594594594597
aF4.525000095367432
aF0.7832564054391323
aF0.9326399970054626
aF1.3354999870061874
aF3.362874984741211
ag6
tp45
a((lp46
F2.450805558098687
aF4.60099983215332
aF0.7977749988436699
aF0.9483461517554063
aF1.756500005722046
aF3.298571450369699
ag6
tp47
a((lp48
F2.457105285242984
aF4.875
aF0.7881578897175036
aF0.9658695640771285
aF1.3489999771118164
aF3.3466666539510093
ag6
tp49
a((lp50
F2.45748648127994
aF0.0
aF0.7972499921917915
aF0.841636370528828
aF1.5013333062330882
aF3.2990000247955322
ag2
(g3
g4
Ntp51
Rp52
(lp53
g2
(g8
g4
Ntp54
Rp55
(lp56
F0.5
aF0.0
aF0.0
abag2
(g8
g4
Ntp57
Rp58
(lp59
F0.0
aF0.0
aF0.0
ababtp60
a((lp61
F2.458486473238146
aF4.285999774932861
aF0.7820256291291653
aF0.8408636288209395
aF1.2999999821186066
aF3.3336250483989716
ag52
tp62
a((lp63
F2.4579189017012313
aF4.291999816894531
aF0.8034102504069989
aF0.8154285692033314
aF1.680999994277954
aF3.295142889022827
ag52
tp64
a((lp65
F2.4234594525517643
aF4.90500020980835
aF0.7959736805213126
aF1.0097368516420062
aF2.0350000858306885
aF3.2618889013926187
ag2
(g3
g4
Ntp66
Rp67
(lp68
g2
(g8
g4
Ntp69
Rp70
(lp71
F0.45
aF0.0
aF0.0
abag2
(g8
g4
Ntp72
Rp73
(lp74
F0.0
aF0.0
aF0.0
ababtp75
a((lp76
F2.3650540532292545
aF0.0
aF0.8433333337306976
aF0.8892857205300104
aF2.275999963283539
aF3.241666661368476
ag2
(g3
g4
Ntp77
Rp78
(lp79
g2
(g8
g4
Ntp80
Rp81
(lp82
F0.405
aF0.0
aF0.0
abag2
(g8
g4
Ntp83
Rp84
(lp85
F0.0
aF0.0
aF0.0
ababtp86
a((lp87
F2.3038378406215356
aF4.827000141143799
aF0.932852937894709
aF1.1502258085435437
aF1.6579999923706055
aF3.1292000293731688
ag78
tp88
a((lp89
F2.2499473534132304
aF4.437999963760376
aF0.9609354849784605
aF1.2376666647015195
aF0.0
aF3.054300045967102
ag2
(g3
g4
Ntp90
Rp91
(lp92
g2
(g8
g4
Ntp93
Rp94
(lp95
F0.36450000000000005
aF0.0
aF0.0
abag2
(g8
g4
Ntp96
Rp97
(lp98
F0.0
aF0.0
aF0.0
ababtp99
a((lp100
F2.132857158070519
aF4.38100004196167
aF1.1986538446866548
aF1.2588928512164526
aF2.0320000052452087
aF2.9250832994778952
ag91
tp101
a((lp102
F2.135243915930027
aF4.38100004196167
aF1.230874997874101
aF1.242931028892254
aF2.0320000052452087
aF2.9250832994778952
ag91
tp103
a((lp104
F2.067682923340216
aF4.544500112533569
aF1.1647727299820294
aF1.3867333392302195
aF1.5999999642372131
aF2.822416663169861
ag91
tp105
a((lp106
F2.003761921610151
aF0.0
aF1.2183157927111576
aF1.442166668176651
aF1.687999963760376
aF2.7803076964158278
ag91
tp107
a((lp108
F1.887374997138977
aF0.0
aF1.6364166587591171
aF1.585548379728871
aF1.656999945640564
aF2.659588238772224
ag2
(g3
g4
Ntp109
Rp110
(lp111
g2
(g8
g4
Ntp112
Rp113
(lp114
F0.32805000000000006
aF0.0
aF0.0
abag2
(g8
g4
Ntp115
Rp116
(lp117
F0.0
aF0.0
aF0.0
ababtp118
a((lp119
F1.8223913000977559
aF0.0
aF1.6616363687948748
aF1.6484827625340428
aF1.5299999713897705
aF2.582882348228903
ag110
tp120
a((lp121
F1.759239137172699
aF0.0
aF1.654937505722046
aF1.7093448145636196
aF0.0
aF2.4789411600898292
ag2
(g3
g4
Ntp122
Rp123
(lp124
g2
(g8
g4
Ntp125
Rp126
(lp127
F0.2952450000000001
aF0.0
aF0.0
abag2
(g8
g4
Ntp128
Rp129
(lp130
F0.0
aF0.0
aF0.0
ababtp131
a((lp132
F1.6982444392310247
aF0.0
aF1.8977333545684814
aF1.74793332417806
aF0.0
aF2.4401176536784455
ag2
(g3
g4
Ntp133
Rp134
(lp135
g2
(g8
g4
Ntp136
Rp137
(lp138
F0.2657205000000001
aF0.0
aF0.0
abag2
(g8
g4
Ntp139
Rp140
(lp141
F0.0
aF0.0
aF0.0
ababtp142
a((lp143
F1.6982444392310247
aF0.0
aF1.7955714464187622
aF1.74793332417806
aF0.0
aF2.4401176536784455
ag134
tp144
a((lp145
F1.6417916615804036
aF0.0
aF1.757166673739751
aF1.8247000018755595
aF2.900999963283539
aF2.296117621309617
ag134
tp146
a((lp147
F1.5788124973575275
aF0.0
aF1.7521666487058003
aF1.9114615596257722
aF2.2605000138282776
aF2.266947388648987
ag2
(g3
g4
Ntp148
Rp149
(lp150
g2
(g8
g4
Ntp151
Rp152
(lp153
F0.23914845000000007
aF0.0
aF0.0
abag2
(g8
g4
Ntp154
Rp155
(lp156
F0.0
aF0.0
aF0.0
ababtp157
a((lp158
F1.5301875000198681
aF0.0
aF1.7382857288633073
aF1.9383076979563787
aF0.0
aF2.1929473625986198
ag149
tp159
a((lp160
F1.4723912969879482
aF0.0
aF1.8540000064032418
aF2.0040000058986522
aF2.409500002861023
aF2.1786190555209206
ag149
tp161
a((lp162
F1.4221000003814697
aF1.6234999895095825
aF1.870571425982884
aF2.0957777809213707
aF2.087500035762787
aF2.086095230919974
ag2
(g3
g4
Ntp163
Rp164
(lp165
g2
(g8
g4
Ntp166
Rp167
(lp168
F0.21523360500000008
aF0.0
aF0.0
abag2
(g8
g4
Ntp169
Rp170
(lp171
F0.0
aF0.0
aF0.0
ababtp172
a((lp173
F1.3234800028800964
aF1.5092500150203705
aF2.525111118952433
aF2.0990357271262576
aF0.0
aF1.9924347815306291
ag164
tp174
a((lp175
F1.273884612780351
aF1.4507500231266022
aF2.529076933860779
aF2.164272736419331
aF3.2080000042915344
aF1.955291673541069
ag164
tp176
a((lp177
F1.2306799864768982
aF1.3995000422000885
aF2.647000014781952
aF2.1994500041007994
aF1.2000000476837158
aF1.8872916748126347
ag2
(g3
g4
Ntp178
Rp179
(lp180
g2
(g8
g4
Ntp181
Rp182
(lp183
F0.19371024450000007
aF0.0
aF0.0
abag2
(g8
g4
Ntp184
Rp185
(lp186
F0.0
aF0.0
aF0.0
ababtp187
a((lp188
F1.1824897941277952
aF1.3499999940395355
aF2.727538512303279
aF2.2032499849796294
aF2.796000063419342
aF1.8454799938201905
ag179
tp189
a((lp190
F1.1405833313862483
aF1.2987499833106995
aF2.6803077184236965
aF2.2491904951277233
aF1.4610000252723694
aF1.7809600019454956
ag2
(g3
g4
Ntp191
Rp192
(lp193
g2
(g8
g4
Ntp194
Rp195
(lp196
F0.17433922005000008
aF0.0
aF0.0
abag2
(g8
g4
Ntp197
Rp198
(lp199
F0.0
aF0.0
aF0.0
ababtp200
a((lp201
F1.1405833313862483
aF1.2987499833106995
aF2.71233336130778
aF2.2491904951277233
aF1.4610000252723694
aF1.7809600019454956
ag192
tp202
a((lp203
F1.0621800088882447
aF1.252571429525103
aF2.72923075235807
aF2.2447619154339744
aF1.3162499964237213
aF1.7054073987183747
ag192
tp204
a((lp205
F1.0621800088882447
aF1.252571429525103
aF2.72923075235807
aF2.2447619154339744
aF1.3162499964237213
aF1.7054073987183747
ag2
(g3
g4
Ntp206
Rp207
(lp208
g2
(g8
g4
Ntp209
Rp210
(lp211
F0.15690529804500009
aF0.0
aF0.0
abag2
(g8
g4
Ntp212
Rp213
(lp214
F0.0
aF0.0
aF0.0
ababtp215
a((lp216
F0.9940000061805432
aF1.4745000004768372
aF2.7203571455819264
aF2.5111579267602218
aF1.6708571655409676
aF1.6470689650239616
ag207
tp217
a((lp218
F0.957415094915426
aF1.4505833486715953
aF2.7968000094095866
aF2.4391052660189176
aF1.2894999980926514
aF1.5858965495537067
ag207
tp219
a((lp220
F0.9246999955177307
aF1.1143076970027044
aF2.8411666552225747
aF2.5604782778283823
aF0.0
aF1.5639999985694886
ag2
(g3
g4
Ntp221
Rp222
(lp223
g2
(g8
g4
Ntp224
Rp225
(lp226
F0.14121476824050008
aF0.0
aF0.0
abag2
(g8
g4
Ntp227
Rp228
(lp229
F0.0
aF0.0
aF0.0
ababtp230
a.